((dp1
V\u6483
I3
sV\u9589
I4
sV\u5408
I5
sV\u5d0e
I6
sV\u6991
I7
sV\u8010
I8
sV\u582f
I739
sV\u809b
I9
sV\u4f1a
I10
sV\u5a1c
I11
sV\u6e9f
I12
sV\u9020
I13
sV\u9322
I14
sV\u85a9
I15
sV\u88ab
I16
sV\u93ad
I17
sV\u722c
I18
sV\u71b1
I19
sV\u5cb3
I20
sV\u75b9
I22
sV\u6c38
I23
sV\u585e
I600
sV\u7a3c
I25
sV\u653e
I26
sV\u8840
I27
sV\u7fc5
I28
sV\u8ac7
I29
sV\u78cb
I30
sV\u73cd
I32
sV\u4ecf
I33
sV\u79d1
I34
sV\u8cd3
I35
sV\u7956
I36
sV\u6458
I37
sV\u98db
I38
sV\u8a34
I472
sV\u5edf
I39
sV\u9060
I40
sV\u6ce3
I41
sV\u9010
I42
sV\u65e9
I43
sV\u58eb
I44
sV\u7f6a
I45
sV\u51f1
I46
sVp
I47
sV\u6cf3
I48
sV\u5ff5
I49
sV\u5e74
I311
sV\u6176
I51
sV\u6df9
I52
sV\u7901
I53
sV\u7403
I54
sV\u5186
I360
sV\u6c88
I290
sV\u7f8a
I57
sV\u8e0f
I58
sV\u9999
I418
sV\u5f15
I60
sV\u8217
I61
sV\u5996
I62
sV\u6d19
I63
sV\u629c
I65
sV\u661f
I66
sV\u7121
I67
sV\u68a0
I68
sV\u5f25
I69
sV\u4ea4
I70
sV\u8ca8
I64
sV\u72ac
I72
sV\u6e2f
I73
sV\u5931
I74
sV\u7433
I75
sV\u5f35
I76
sV\u61b6
I77
sV\u7d39
I78
sV\u54b8
I79
sV\u8fba
I80
sV\u6b3d
I81
sV\u62bc
I82
sV\u863f
I83
sV\u8dbe
I84
sV\u53c2
I85
sV\u9ec4
I100
sV\u5247
I87
sV\u99c6
I88
sV\u8cc8
I89
sV\u7fca
I90
sV\u9786
I792
sV\u62cc
I91
sV\u8755
I92
sV\u4ed4
I93
sV\u7559
I94
sV\u5b5d
I96
sV\u7adc
I97
sV\u4e5f
I98
sV\u7dde
I99
sV\u53e2
I101
sV\u6765
I102
sV\u76e4
I103
sV\u51e6
I104
sVk
I105
sV\u72ec
I107
sV\u6e6f
I108
sV\uff7c
I755
sV\u7c73
I110
sV\u7f75
I111
sV\u76f4
I112
sV\u92fc
I113
sV\u9e7f
I114
sV\u8881
I115
sV\u6a02
I116
sV\u5b87
I117
sV\u9806
I118
sV\u7c89
I119
sV\u7e0a
I120
sV\u8a8d
I121
sV\uff8f
I122
sV\u840e
I123
sV\u9091
I124
sV\u9593
I126
sV\u9695
I127
sV\u8f14
I128
sV\u7b97
I129
sV\u6816
I130
sV\u725b
I329
sV\u704c
I646
sV\uff84
I133
sV\u95a3
I135
sV\u8ca9
I136
sV\u7528
I137
sV\u8aad
I139
sV\u7b2c
I140
sV\u8faf
I141
sV\u6930
I142
sV\u8db3
I143
sV\u5036
I144
sV\u6cb9
I145
sV\u4fbf
I146
sV\u5c3e
I147
sV\u78c1
I148
sV\u6ec5
I149
sV\u5bc7
I150
sV\u54c9
I151
sV\u69cb
I152
sV\u6e4a
I153
sV\u60d1
I154
sV\u5150
I155
sV\u53d7
I156
sV\u5438
I157
sV\u635c
I158
sV\u57df
I159
sV\u945e
I160
sV\u9811
I161
sV\u55e3
I162
sV\u5a62
I163
sV\u4ee5
I164
sV\u5be7
I165
sVf
I166
sV\u5ce9
I167
sV\u62ed
I169
sV\u8df3
I170
sV\u8272
I171
sVv
I173
sV\u667a
I174
sV\u60df
I713
sV\u67ff
I175
sV\u5f84
I176
sV\u8086
I177
sV\u5409
I178
sV\u696d
I562
sV\u820d
I180
sV\u5f0f
I181
sV\u7011
I182
sV\u6973
I663
sV\u9b5a
I495
sV\u5317
I183
sV\u5fc5
I184
sV\u771f
I185
sV\u6021
I106
sV\uff71
I765
sV\u6625
I188
sV\u7fa4
I189
sV\u592b
I230
sV\u93ac
I191
sV\u5f2f
I192
sV\u64ae
I193
sV\u5831
I194
sV\u61c9
I484
sV\u8ab2
I196
sV\uff1f
I197
sV\u5439
I198
sV\u7701
I199
sV\u4eba
I200
sV\u723d
I201
sV\u5841
I203
sV\u79c0
I204
sV\u8543
I205
sV\u5449
I206
sV\u514b
I207
sV\u8eca
I314
sV\u524d
I209
sV\u564c
I488
sV\u99d0
I211
sV\u5e55
I212
sV\u5b57
I213
sV\u76f8
I341
sV\u8ecd
I865
sV\u95d8
I215
sV\u614e
I490
sVa
I218
sV\u6563
I219
sV\u52e2
I220
sV\u6fe4
I221
sV\u6469
I222
sV\u5de8
I223
sV\u5c0d
I224
sV\u53ec
I225
sV\u51f0
I226
sV\u687f
I772
sV\u8377
I228
sV\u30f6
I229
sV\u677f
I231
sV\u8a00
I232
sV\u5e83
I233
sV\u8d85
I234
sV\u9700
I331
sV\u4e2d
I634
sV\u828b
I237
sV\u8d0a
I238
sV\u598d
I239
sV\u9b91
I240
sV\u3002
I346
sV\uff91
I680
sV\u5316
I242
sV\uff99
I243
sV\u4e18
I244
sV\u529b
I245
sV\u5d1a
I246
sV\u5922
I247
sV\u5fa9
I248
sV\u652a
I249
sV\u8caf
I251
sV\u83b1
I252
sV\u5132
I253
sV\u6c34
I254
sV\u8336
I255
sV\u5e38
I256
sV\u753a
I257
sV\u738b
I351
sV\u6240
I259
sV\u55c5
I260
sV\u58c7
I261
sV\u7b46
I262
sV\u840d
I836
sV\u91cd
I263
sV\u884c
I264
sV\u5152
I265
sV\u7c54
I266
sV\u91b8
I638
sV\u6e58
I267
sV\u62db
I268
sV\u6d3b
I639
sV\u52d9
I817
sV\u4f5e
I271
sV\u76e3
I273
sV\u65e5
I274
sV\u8b66
I275
sV\u6668
I276
sV\u6d6a
I277
sV\u5f93
I353
sV\u7f6e
I279
sV\u83f1
I280
sV\u56f3
I282
sV\u7199
I459
sVh
I503
sV\u57f9
I284
sV\uff7e
I286
sV\u6280
I287
sV\u4e03
I288
sV\u5982
I289
sV\u6191
I513
sV\u3007
I291
sV\u8f09
I292
sV\u4e88
I293
sV\u8d8a
I294
sV\u540f
I202
sV\u7f8e
I296
sV\u7b11
I297
sV\u9192
I298
sV\uff72
I506
sV\u8017
I299
sV\u6b96
I300
sV'
I301
sV\u822b
I302
sV\u50ac
I303
sV\u9b31
I304
sV\u5ce1
I601
sV\u51b2
I21
sV\u8535
I307
sV\u5bb6
I308
sV\u66b8
I309
sV\u78bc
I310
sV\u5674
I50
sV\u5341
I312
sV\u4e43
I313
sV\u4eca
I208
sV\u84c4
I315
sV\u5047
I316
sV\u5ec8
I317
sV\u6a4b
I318
sV\u5976
I319
sV\u7c4f
I321
sV\u57ce
I322
sV\u7b51
I323
sV\u99d2
I324
sV\u8857
I325
sV\u53d6
I326
sV\u4f59
I327
sV\u4ed8
I328
sV\u525b
I132
sV\u90ce
I172
sV\u795d
I499
sV\u60dc
I332
sV\u6c5f
I333
sV\u7ae0
I334
sVg
I335
sV\u516d
I336
sV\u4fee
I337
sV\u4e73
I338
sV\u4ee3
I814
sVw
I339
sV\u5bf6
I340
sV\u5e73
I305
sV\u5f01
I775
sV\u597d
I95
sV\u98fc
I343
sV\u6148
I856
sV\u7a81
I344
sV\uff83
I345
sV\u5802
I241
sV\u7d04
I348
sV\u7206
I349
sV\u9053
I554
sV\u6708
I350
sV\u7b8b
I258
sV\u660e
I352
sV\uff93
I278
sV\u5012
I354
sV\u9577
I885
sV\u639b
I355
sV\u8fa3
I356
sV\u9022
I357
sV\u4e07
I514
sV\u6728
I359
sV\u70ad
I361
sV\u792c
I362
sV\u5fdc
I654
sV\u82b1
I364
sV\u5b30
I365
sV\u5fb3
I366
sV\u5236
I367
sV\u643a
I369
sV\u713c
I370
sV\u544a
I371
sV\u50cd
I372
sV\u714c
I373
sV\u7dcf
I374
sV\u5b50
I376
sV\u67d3
I377
sV\u6cd5
I378
sV\u9078
I816
sV\u4ed9
I379
sV\u6bdb
I380
sV\u80dd
I381
sV\u4fe3
I382
sVb
I383
sV\u9ce5
I384
sV\u7564
I385
sV\u8a66
I386
sV\u546a
I387
sV\u516c
I388
sV\u8def
I389
sV\u82f1
I390
sV\u8b70
I391
sV\u77f3
I392
sV\u5072
I393
sV\u7a76
I394
sV\u66f9
I395
sV\u6f15
I396
sV\u80fd
I397
sV\u5a01
I398
sV\u56c1
I800
sV\u6703
I399
sV\u4e09
I400
sV\u9996
I401
sV\u8a55
I649
sV\u4e8e
I402
sV\u8ca1
I748
sV\u8594
I616
sV\uff98
I404
sV\u601d
I405
sV\u751f
I407
sV\u95c7
I805
sV\u5927
I409
sV\u6e29
I410
sV\u632b
I411
sV\u8caa
I412
sV-
I413
sV\u59ac
I414
sV\u652f
I415
sV\u62c9
I806
sV\u50b2
I417
sV\u72b6
I419
sV\u683d
I421
sV\u57cb
I807
sV\u653f
I423
sV\u88c2
I425
sV\u7b4b
I426
sV\u74ca
I427
sV\u9580
I617
sV\u5f53
I429
sV\u65cf
I430
sV\u685d
I431
sV\u51dc
I432
sV\u56de
I433
sV\u5967
I434
sV\u967d
I668
sV\u8c4a
I436
sVm
I437
sV\u97d3
I438
sV\u76ee
I439
sV\u5271
I440
sV\u53f0
I441
sV\u4f73
I442
sV\u58f2
I443
sV\u75f4
I444
sV\u5177
I445
sV\u98a8
I529
sV\u757f
I447
sV\u66fe
I448
sV\u5506
I449
sV\u9808
I450
sV\u660c
I452
sV\u690e
I453
sV\u7591
I454
sV\u5410
I455
sV\u5712
I456
sV\u5e97
I457
sV\u8b58
I818
sV\u6199
I59
sV\u931a
I460
sV\uff9d
I71
sV\u63db
I462
sV\u7a9f
I463
sV\u90a3
I464
sV\u6d5c
I469
sV\u6028
I466
sV\u64ab
I467
sV\u592e
I131
sV\u7389
I657
sV\u70b3
I471
sV\u6234
I406
sV\u5eb7
I473
sV\u8208
I676
sV\u9838
I475
sV\u6cbb
I476
sV\u5fbd
I168
sV\u4e3c
I478
sV\u8abf
I479
sV\u793e
I480
sV\u5742
I481
sV\u9244
I482
sV\u5546
I483
sV\u91c9
I195
sV\u918d
I485
sV\u51b6
I486
sV\u5fcd
I487
sV\u764c
I210
sV\u92cf
I489
sV\u914e
I217
sV\u6539
I491
sV\u9752
I492
sV\u84b8
I493
sV\u5858
I494
sV\u535a
I134
sV\u795e
I496
sV\u7460
I497
sV\u9762
I498
sV\u9264
I500
sV\u6d66
I501
sV\u79e9
I502
sV\u8868
I283
sV\u9ad8
I756
sV\u8266
I504
sV\u7aef
I505
sV\u7f72
I306
sV\u5ef7
I507
sVx
I508
sV\u7b7a
I509
sV\u5e7c
I511
sV\u7814
I681
sV\u6607
I358
sV\u7586
I515
sV\u8511
I516
sV\u5c90
I517
sV\u6813
I518
sV\u5098
I519
sV\u541b
I520
sV\u671d
I521
sV\u929b
I522
sV\u6ec4
I86
sV\u8521
I524
sV\u811a
I683
sV\u6591
I526
sV\u5370
I527
sV\u5929
I272
sV\u90a8
I446
sV\u542b
I530
sV\u7baa
I531
sV\u572d
I532
sV\u97f3
I533
sV\u99ae
I534
sVr
I535
sV\u6f2c
I782
sV\u55b6
I536
sV\u543b
I537
sV\u4fc2
I539
sV\u5149
I540
sV\u5c4b
I541
sV\u6276
I542
sV\u8ecc
I543
sV\u91ce
I544
sS'S'
I2
sV\u7fd2
I546
sV\u745b
I548
sV\u66dc
I549
sV\u6a5f
I550
sVc
I551
sV\u755c
I821
sV\u5de6
I552
sV\u90e8
I553
sV\u8853
I545
sV\u526f
I555
sV\u7d71
I556
sVs
I557
sV\u87f2
I558
sV\u66ab
I690
sV\u6c81
I560
sV\u5e02
I561
sV\u7406
I563
sV\u6a0a
I564
sV\u968d
I565
sV\uff0c
I566
sV\u5b8f
I567
sV\u642c
I693
sV\u6559
I569
sV\u9295
I570
sV\u6797
I571
sV\u5099
I572
sV\u5118
I732
sV\u859b
I574
sV\u571c
I575
sV\u5ca1
I576
sV\u7d20
I577
sV\u66c4
I523
sV\u9928
I578
sV\u6a2a
I420
sV\u4ead
I580
sV\u672c
I581
sV\u6821
I186
sV\u5cb1
I582
sV\u7530
I583
sV\u89b3
I584
sV\u5b88
I834
sV\u70b9
I586
sV\u95bb
I587
sV\u6dde
I588
sV\u66f8
I214
sV\u4f3c
I589
sV\u5834
I697
sV\u71c3
I590
sV\u6642
I591
sV\u540d
I190
sV\u96cd
I593
sV\u6063
I594
sV\u81d3
I595
sV\u7652
I596
sV\u52d5
I597
sV\u9b54
I598
sV\u5fd7
I599
sV\u8a2a
I777
sV\u5055
I769
sV\u805e
I24
sV\u54e1
I281
sV\u9662
I602
sV\u82e5
I603
sV\u6deb
I604
sVn
I605
sV\u8d70
I606
sV\u5374
I607
sV\u8ff7
I608
sV\u78e8
I609
sV\u58f9
I610
sV\u6dfb
I611
sV\u7a7a
I612
sV\u56fd
I613
sV\u4f7c
I109
sV\u5bff
I615
sV\u8580
I375
sV\u6d17
I839
sV\u6d0b
I619
sV\u4e0d
I620
sV\u5f8c
I621
sV\u6c11
I622
sV\u6590
I623
sV\u6717
I624
sV\u5019
I625
sV\u8998
I626
sV\u309e
I627
sV\u56a2
I628
sV\u5a25
I629
sV\u5ba4
I630
sV\u5727
I631
sV\u6829
I632
sV\u6b66
I633
sV\u5e2d
I236
sV\u632f
I635
sV\u5c31
I636
sV\u4f75
I216
sV\u753b
I270
sV\u50be
I640
sV\u5143
I641
sV\u97a0
I845
sV\u71c8
I643
sV\u7e4d
I644
sV\u80ce
I330
sV\u5451
I547
sV\u9ed2
I648
sV\u6255
I320
sV\u6bd4
I650
sV\u5f57
I651
sV\u7cd6
I652
sV\u9059
I653
sV\u57dc
I363
sV\u80de
I655
sV\u8fd1
I708
sVi
I658
sV\u6b6f
I403
sV\u68ee
I660
sV\u5c71
I661
sV\u8229
I848
sV\u5973
I125
sV\u66f2
I664
sV\u63f4
I665
sV\u5cf6
I666
sVy
I667
sV\uff01
I724
sV\u767d
I435
sV\u732b
I669
sV\u5264
I670
sV\u6f81
I671
sV\u4e00
I672
sV\u52c7
I673
sV\u5185
I674
sV\u8389
I470
sV\u8a08
I474
sV\u990a
I677
sV\u540c
I678
sV\u7dac
I679
sV\u4f91
I510
sV\u9014
I512
sV\u8a18
I682
sV\u591a
I525
sV\u82db
I684
sV\u609f
I685
sV\u51a5
I686
sV\u7387
I687
sV\u73a9
I688
sV\u5ddd
I712
sV\u5eab
I559
sV\u592a
I691
sV\u7dad
I692
sV\u842c
I568
sV\u732e
I694
sV\u90fd
I695
sV\u6d32
I696
sV\u98df
I538
sV\u5bb9
I698
sV\u6238
I699
sV\u3005
I831
sV\u793a
I700
sV\u60a3
I701
sV\u5016
I728
sV\u820a
I637
sV\u6853
I703
sV\u4ecb
I704
sV\u694a
I705
sV\u56e3
I706
sV\u50cf
I707
sV\u4fd1
I656
sV\u9650
I709
sV\u6451
I647
sV\u6cd7
I710
sV\u795a
I711
sV\u8ddd
I689
sV\u88df
I477
sV\u6fe1
I714
sV\u6b63
I876
sV\u7de8
I715
sVd
I716
sV\u5f66
I717
sV\u5b66
I468
sV\u79ae
I719
sVt
I720
sV\u8278
I721
sV\u4efb
I722
sV\u6f14
I723
sV\u4f01
I285
sV\u516a
I718
sV\u4f86
I726
sV\u7a88
I727
sV\u598a
I347
sV\u8c8c
I729
sV\u6094
I730
sV\u6c17
I731
sV\u899a
I733
sV\u901f
I734
sV\u95a2
I736
sV\u5b89
I675
sV\u9aa8
I737
sV\u5e2b
I738
sV\u679d
I461
sV\u9bae
I740
sV\u8c37
I741
sV\u67b6
I31
sV\u8b39
I743
sV\u686b
I614
sV\u4e3b
I744
sV\u934b
I745
sV\u803f
I746
sV\u8074
I747
sV\u4ec0
I55
sV\u68ca
I867
sV\u6349
I750
sV\u6751
I751
sV\u6253
I752
sV\u633d
I753
sV\u6c57
I754
sV\u9b6f
I659
sV\u65e2
I757
sV\u5965
I758
sV\u70e4
I759
sV\u81ea
I760
sV\u856d
I761
sV\u4f53
I762
sVo
I763
sV\u63ee
I764
sV\u6771
I187
sV\u8a73
I766
sV\u5357
I528
sV\u9477
I767
sV\u9d28
I768
sV\u706b
I368
sV\u767b
I770
sV\u51fa
I771
sV\u907f
I227
sV\u5bfe
I773
sV\u8e81
I774
sV\u8700
I235
sV\u6383
I776
sV\u822a
I579
sV\u6587
I778
sV\u5e06
I779
sV\u578b
I780
sV\u798f
I781
sV\u7a0e
I269
sV\u5f10
I783
sV\u9582
I725
sV\u6597
I784
sV\u4e16
I785
sV\u8299
I786
sV\u901a
I787
sV\u751c
I788
sV\u4ea1
I789
sV\u697d
I342
sV\u81fa
I790
sV\u885d
I791
sV\u502a
I56
sV\u64ad
I793
sV\u95dc
I874
sV\u5730
I795
sV\u9771
I796
sV\u68b5
I797
sV\u786b
I798
sV\u93ae
I799
sV\u614b
I645
sV\u7740
I801
sV\u5442
I802
sV\u88c5
I803
sV\u6144
I804
sV\u75c7
I408
sV\u5ac9
I416
sV\u97cb
I422
sV\u904a
I808
sV\u64cd
I809
sV\u7d4c
I428
sV\u91cf
I811
sV\u85ac
I852
sV\u6750
I812
sV\u83d3
I813
sV\u6c0f
I295
sV\u571f
I815
sV\u7656
I451
sV\u4e0a
I702
sV\u5358
I458
sV\u9591
I819
sV\u805a
I465
sV\u9055
I869
sV\u5d5c
I250
sV\u79df
I822
sVj
I823
sV\u6f70
I824
sV\u6df7
I825
sV\u67fb
I826
sVz
I827
sV\u557c
I828
sV\u59ff
I829
sV\u58c1
I424
sV\u8005
I573
sV\u5984
I832
sV\u5d07
I833
sV\u6388
I585
sV\u908a
I835
sV\u640d
I138
sV\u5d8c
I837
sV\uff80
I830
sV\u7642
I838
sV\u7d17
I618
sV\u96c5
I840
sV\u86ee
I841
sV\u611f
I842
sV\u629e
I843
sV\u6e21
I844
sV\u77a0
I642
sV\u6b23
I846
sV\u5ea6
I847
sV\u6a29
I662
sV\u63a8
I849
sV\u6f2b
I850
sV\u642d
I851
sV\u65ac
I179
sV\u5206
I853
sV\u68f2
I854
sV\u99b4
I855
sV\u5948
I592
sV\u6a39
I857
sV\u5bb8
I858
sV\u78ba
I859
sV\u843d
I860
sV\u7e4a
I861
sS'E'
I0
sV\u51c4
I735
sV\u96c6
I863
sV\u9249
I864
sV\u53c8
I742
sV\u9f4b
I866
sV\u90ca
I749
sV\u6b53
I868
sS'U'
I1
sV\u671f
I870
sV\u7259
I871
sV\u6bd8
I872
sV\u50da
I873
sV\u778e
I820
sV\u55dc
I794
sV\u50d1
I875
sV\u7363
I810
sVe
I877
sV\u6027
I878
sV\u5be8
I879
sV\u976b
I880
sV\u62ee
I881
sV\u6b73
I882
sVu
I883
sV\u81f4
I884
sV\u6d77
I862
sV\u7279
I886
sV\u53f8
I887
sV\u6c7d
I888
sV\u897f
I889
s(dp2
I0
S'E'
sI1
S'U'
sI2
S'S'
sI3
V\u6483
sI4
V\u9589
sI5
V\u5408
sI6
V\u5d0e
sI7
V\u6991
sI8
V\u8010
sI9
V\u809b
sI10
V\u4f1a
sI11
V\u5a1c
sI12
V\u6e9f
sI13
V\u9020
sI14
V\u9322
sI15
V\u85a9
sI16
V\u88ab
sI17
V\u93ad
sI18
V\u722c
sI19
V\u71b1
sI20
V\u5cb3
sI21
V\u51b2
sI22
V\u75b9
sI23
V\u6c38
sI24
V\u805e
sI25
V\u7a3c
sI26
V\u653e
sI27
V\u8840
sI28
V\u7fc5
sI29
V\u8ac7
sI30
V\u78cb
sI31
V\u67b6
sI32
V\u73cd
sI33
V\u4ecf
sI34
V\u79d1
sI35
V\u8cd3
sI36
V\u7956
sI37
V\u6458
sI38
V\u98db
sI39
V\u5edf
sI40
V\u9060
sI41
V\u6ce3
sI42
V\u9010
sI43
V\u65e9
sI44
V\u58eb
sI45
V\u7f6a
sI46
V\u51f1
sI47
Vp
sI48
V\u6cf3
sI49
V\u5ff5
sI50
V\u5674
sI51
V\u6176
sI52
V\u6df9
sI53
V\u7901
sI54
V\u7403
sI55
V\u4ec0
sI56
V\u502a
sI57
V\u7f8a
sI58
V\u8e0f
sI59
V\u6199
sI60
V\u5f15
sI61
V\u8217
sI62
V\u5996
sI63
V\u6d19
sI64
V\u8ca8
sI65
V\u629c
sI66
V\u661f
sI67
V\u7121
sI68
V\u68a0
sI69
V\u5f25
sI70
V\u4ea4
sI71
V\uff9d
sI72
V\u72ac
sI73
V\u6e2f
sI74
V\u5931
sI75
V\u7433
sI76
V\u5f35
sI77
V\u61b6
sI78
V\u7d39
sI79
V\u54b8
sI80
V\u8fba
sI81
V\u6b3d
sI82
V\u62bc
sI83
V\u863f
sI84
V\u8dbe
sI85
V\u53c2
sI86
V\u6ec4
sI87
V\u5247
sI88
V\u99c6
sI89
V\u8cc8
sI90
V\u7fca
sI91
V\u62cc
sI92
V\u8755
sI93
V\u4ed4
sI94
V\u7559
sI95
V\u597d
sI96
V\u5b5d
sI97
V\u7adc
sI98
V\u4e5f
sI99
V\u7dde
sI100
V\u9ec4
sI101
V\u53e2
sI102
V\u6765
sI103
V\u76e4
sI104
V\u51e6
sI105
Vk
sI106
V\u6021
sI107
V\u72ec
sI108
V\u6e6f
sI109
V\u4f7c
sI110
V\u7c73
sI111
V\u7f75
sI112
V\u76f4
sI113
V\u92fc
sI114
V\u9e7f
sI115
V\u8881
sI116
V\u6a02
sI117
V\u5b87
sI118
V\u9806
sI119
V\u7c89
sI120
V\u7e0a
sI121
V\u8a8d
sI122
V\uff8f
sI123
V\u840e
sI124
V\u9091
sI125
V\u5973
sI126
V\u9593
sI127
V\u9695
sI128
V\u8f14
sI129
V\u7b97
sI130
V\u6816
sI131
V\u592e
sI132
V\u525b
sI133
V\uff84
sI134
V\u535a
sI135
V\u95a3
sI136
V\u8ca9
sI137
V\u7528
sI138
V\u640d
sI139
V\u8aad
sI140
V\u7b2c
sI141
V\u8faf
sI142
V\u6930
sI143
V\u8db3
sI144
V\u5036
sI145
V\u6cb9
sI146
V\u4fbf
sI147
V\u5c3e
sI148
V\u78c1
sI149
V\u6ec5
sI150
V\u5bc7
sI151
V\u54c9
sI152
V\u69cb
sI153
V\u6e4a
sI154
V\u60d1
sI155
V\u5150
sI156
V\u53d7
sI157
V\u5438
sI158
V\u635c
sI159
V\u57df
sI160
V\u945e
sI161
V\u9811
sI162
V\u55e3
sI163
V\u5a62
sI164
V\u4ee5
sI165
V\u5be7
sI166
Vf
sI167
V\u5ce9
sI168
V\u5fbd
sI169
V\u62ed
sI170
V\u8df3
sI171
V\u8272
sI172
V\u90ce
sI173
Vv
sI174
V\u667a
sI175
V\u67ff
sI176
V\u5f84
sI177
V\u8086
sI178
V\u5409
sI179
V\u65ac
sI180
V\u820d
sI181
V\u5f0f
sI182
V\u7011
sI183
V\u5317
sI184
V\u5fc5
sI185
V\u771f
sI186
V\u6821
sI187
V\u6771
sI188
V\u6625
sI189
V\u7fa4
sI190
V\u540d
sI191
V\u93ac
sI192
V\u5f2f
sI193
V\u64ae
sI194
V\u5831
sI195
V\u91c9
sI196
V\u8ab2
sI197
V\uff1f
sI198
V\u5439
sI199
V\u7701
sI200
V\u4eba
sI201
V\u723d
sI202
V\u540f
sI203
V\u5841
sI204
V\u79c0
sI205
V\u8543
sI206
V\u5449
sI207
V\u514b
sI208
V\u4eca
sI209
V\u524d
sI210
V\u764c
sI211
V\u99d0
sI212
V\u5e55
sI213
V\u5b57
sI214
V\u66f8
sI215
V\u95d8
sI216
V\u4f75
sI217
V\u914e
sI218
Va
sI219
V\u6563
sI220
V\u52e2
sI221
V\u6fe4
sI222
V\u6469
sI223
V\u5de8
sI224
V\u5c0d
sI225
V\u53ec
sI226
V\u51f0
sI227
V\u907f
sI228
V\u8377
sI229
V\u30f6
sI230
V\u592b
sI231
V\u677f
sI232
V\u8a00
sI233
V\u5e83
sI234
V\u8d85
sI235
V\u8700
sI236
V\u5e2d
sI237
V\u828b
sI238
V\u8d0a
sI239
V\u598d
sI240
V\u9b91
sI241
V\u5802
sI242
V\u5316
sI243
V\uff99
sI244
V\u4e18
sI245
V\u529b
sI246
V\u5d1a
sI247
V\u5922
sI248
V\u5fa9
sI249
V\u652a
sI250
V\u5d5c
sI251
V\u8caf
sI252
V\u83b1
sI253
V\u5132
sI254
V\u6c34
sI255
V\u8336
sI256
V\u5e38
sI257
V\u753a
sI258
V\u7b8b
sI259
V\u6240
sI260
V\u55c5
sI261
V\u58c7
sI262
V\u7b46
sI263
V\u91cd
sI264
V\u884c
sI265
V\u5152
sI266
V\u7c54
sI267
V\u6e58
sI268
V\u62db
sI269
V\u7a0e
sI270
V\u753b
sI271
V\u4f5e
sI272
V\u5929
sI273
V\u76e3
sI274
V\u65e5
sI275
V\u8b66
sI276
V\u6668
sI277
V\u6d6a
sI278
V\uff93
sI279
V\u7f6e
sI280
V\u83f1
sI281
V\u54e1
sI282
V\u56f3
sI283
V\u8868
sI284
V\u57f9
sI285
V\u4f01
sI286
V\uff7e
sI287
V\u6280
sI288
V\u4e03
sI289
V\u5982
sI290
V\u6c88
sI291
V\u3007
sI292
V\u8f09
sI293
V\u4e88
sI294
V\u8d8a
sI295
V\u6c0f
sI296
V\u7f8e
sI297
V\u7b11
sI298
V\u9192
sI299
V\u8017
sI300
V\u6b96
sI301
V'
sI302
V\u822b
sI303
V\u50ac
sI304
V\u9b31
sI305
V\u5e73
sI306
V\u7f72
sI307
V\u8535
sI308
V\u5bb6
sI309
V\u66b8
sI310
V\u78bc
sI311
V\u5e74
sI312
V\u5341
sI313
V\u4e43
sI314
V\u8eca
sI315
V\u84c4
sI316
V\u5047
sI317
V\u5ec8
sI318
V\u6a4b
sI319
V\u5976
sI320
V\u6255
sI321
V\u7c4f
sI322
V\u57ce
sI323
V\u7b51
sI324
V\u99d2
sI325
V\u8857
sI326
V\u53d6
sI327
V\u4f59
sI328
V\u4ed8
sI329
V\u725b
sI330
V\u80ce
sI331
V\u9700
sI332
V\u60dc
sI333
V\u6c5f
sI334
V\u7ae0
sI335
Vg
sI336
V\u516d
sI337
V\u4fee
sI338
V\u4e73
sI339
Vw
sI340
V\u5bf6
sI341
V\u76f8
sI342
V\u697d
sI343
V\u98fc
sI344
V\u7a81
sI345
V\uff83
sI346
V\u3002
sI347
V\u598a
sI348
V\u7d04
sI349
V\u7206
sI350
V\u6708
sI351
V\u738b
sI352
V\u660e
sI353
V\u5f93
sI354
V\u5012
sI355
V\u639b
sI356
V\u8fa3
sI357
V\u9022
sI358
V\u6607
sI359
V\u6728
sI360
V\u5186
sI361
V\u70ad
sI362
V\u792c
sI363
V\u57dc
sI364
V\u82b1
sI365
V\u5b30
sI366
V\u5fb3
sI367
V\u5236
sI368
V\u706b
sI369
V\u643a
sI370
V\u713c
sI371
V\u544a
sI372
V\u50cd
sI373
V\u714c
sI374
V\u7dcf
sI375
V\u8580
sI376
V\u5b50
sI377
V\u67d3
sI378
V\u6cd5
sI379
V\u4ed9
sI380
V\u6bdb
sI381
V\u80dd
sI382
V\u4fe3
sI383
Vb
sI384
V\u9ce5
sI385
V\u7564
sI386
V\u8a66
sI387
V\u546a
sI388
V\u516c
sI389
V\u8def
sI390
V\u82f1
sI391
V\u8b70
sI392
V\u77f3
sI393
V\u5072
sI394
V\u7a76
sI395
V\u66f9
sI396
V\u6f15
sI397
V\u80fd
sI398
V\u5a01
sI399
V\u6703
sI400
V\u4e09
sI401
V\u9996
sI402
V\u4e8e
sI403
V\u6b6f
sI404
V\uff98
sI405
V\u601d
sI406
V\u6234
sI407
V\u751f
sI408
V\u75c7
sI409
V\u5927
sI410
V\u6e29
sI411
V\u632b
sI412
V\u8caa
sI413
V-
sI414
V\u59ac
sI415
V\u652f
sI416
V\u5ac9
sI417
V\u50b2
sI418
V\u9999
sI419
V\u72b6
sI420
V\u6a2a
sI421
V\u683d
sI422
V\u97cb
sI423
V\u653f
sI424
V\u58c1
sI425
V\u88c2
sI426
V\u7b4b
sI427
V\u74ca
sI428
V\u7d4c
sI429
V\u5f53
sI430
V\u65cf
sI431
V\u685d
sI432
V\u51dc
sI433
V\u56de
sI434
V\u5967
sI435
V\u767d
sI436
V\u8c4a
sI437
Vm
sI438
V\u97d3
sI439
V\u76ee
sI440
V\u5271
sI441
V\u53f0
sI442
V\u4f73
sI443
V\u58f2
sI444
V\u75f4
sI445
V\u5177
sI446
V\u90a8
sI447
V\u757f
sI448
V\u66fe
sI449
V\u5506
sI450
V\u9808
sI451
V\u7656
sI452
V\u660c
sI453
V\u690e
sI454
V\u7591
sI455
V\u5410
sI456
V\u5712
sI457
V\u5e97
sI458
V\u5358
sI459
V\u7199
sI460
V\u931a
sI461
V\u679d
sI462
V\u63db
sI463
V\u7a9f
sI464
V\u90a3
sI465
V\u805a
sI466
V\u6028
sI467
V\u64ab
sI468
V\u5b66
sI469
V\u6d5c
sI470
V\u8389
sI471
V\u70b3
sI472
V\u8a34
sI473
V\u5eb7
sI474
V\u8a08
sI475
V\u9838
sI476
V\u6cbb
sI477
V\u88df
sI478
V\u4e3c
sI479
V\u8abf
sI480
V\u793e
sI481
V\u5742
sI482
V\u9244
sI483
V\u5546
sI484
V\u61c9
sI485
V\u918d
sI486
V\u51b6
sI487
V\u5fcd
sI488
V\u564c
sI489
V\u92cf
sI490
V\u614e
sI491
V\u6539
sI492
V\u9752
sI493
V\u84b8
sI494
V\u5858
sI495
V\u9b5a
sI496
V\u795e
sI497
V\u7460
sI498
V\u9762
sI499
V\u795d
sI500
V\u9264
sI501
V\u6d66
sI502
V\u79e9
sI503
Vh
sI504
V\u8266
sI505
V\u7aef
sI506
V\uff72
sI507
V\u5ef7
sI508
Vx
sI509
V\u7b7a
sI510
V\u4f91
sI511
V\u5e7c
sI512
V\u9014
sI513
V\u6191
sI514
V\u4e07
sI515
V\u7586
sI516
V\u8511
sI517
V\u5c90
sI518
V\u6813
sI519
V\u5098
sI520
V\u541b
sI521
V\u671d
sI522
V\u929b
sI523
V\u66c4
sI524
V\u8521
sI525
V\u591a
sI526
V\u6591
sI527
V\u5370
sI528
V\u5357
sI529
V\u98a8
sI530
V\u542b
sI531
V\u7baa
sI532
V\u572d
sI533
V\u97f3
sI534
V\u99ae
sI535
Vr
sI536
V\u55b6
sI537
V\u543b
sI538
V\u98df
sI539
V\u4fc2
sI540
V\u5149
sI541
V\u5c4b
sI542
V\u6276
sI543
V\u8ecc
sI544
V\u91ce
sI545
V\u8853
sI546
V\u7fd2
sI547
V\u5451
sI548
V\u745b
sI549
V\u66dc
sI550
V\u6a5f
sI551
Vc
sI552
V\u5de6
sI553
V\u90e8
sI554
V\u9053
sI555
V\u526f
sI556
V\u7d71
sI557
Vs
sI558
V\u87f2
sI559
V\u5eab
sI560
V\u6c81
sI561
V\u5e02
sI562
V\u696d
sI563
V\u7406
sI564
V\u6a0a
sI565
V\u968d
sI566
V\uff0c
sI567
V\u5b8f
sI568
V\u842c
sI569
V\u6559
sI570
V\u9295
sI571
V\u6797
sI572
V\u5099
sI573
V\u8005
sI574
V\u859b
sI575
V\u571c
sI576
V\u5ca1
sI577
V\u7d20
sI578
V\u9928
sI579
V\u822a
sI580
V\u4ead
sI581
V\u672c
sI582
V\u5cb1
sI583
V\u7530
sI584
V\u89b3
sI585
V\u6388
sI586
V\u70b9
sI587
V\u95bb
sI588
V\u6dde
sI589
V\u4f3c
sI590
V\u71c3
sI591
V\u6642
sI592
V\u5948
sI593
V\u96cd
sI594
V\u6063
sI595
V\u81d3
sI596
V\u7652
sI597
V\u52d5
sI598
V\u9b54
sI599
V\u5fd7
sI600
V\u585e
sI601
V\u5ce1
sI602
V\u9662
sI603
V\u82e5
sI604
V\u6deb
sI605
Vn
sI606
V\u8d70
sI607
V\u5374
sI608
V\u8ff7
sI609
V\u78e8
sI610
V\u58f9
sI611
V\u6dfb
sI612
V\u7a7a
sI613
V\u56fd
sI614
V\u686b
sI615
V\u5bff
sI616
V\u8594
sI617
V\u9580
sI618
V\u7d17
sI619
V\u6d0b
sI620
V\u4e0d
sI621
V\u5f8c
sI622
V\u6c11
sI623
V\u6590
sI624
V\u6717
sI625
V\u5019
sI626
V\u8998
sI627
V\u309e
sI628
V\u56a2
sI629
V\u5a25
sI630
V\u5ba4
sI631
V\u5727
sI632
V\u6829
sI633
V\u6b66
sI634
V\u4e2d
sI635
V\u632f
sI636
V\u5c31
sI637
V\u820a
sI638
V\u91b8
sI639
V\u6d3b
sI640
V\u50be
sI641
V\u5143
sI642
V\u77a0
sI643
V\u71c8
sI644
V\u7e4d
sI645
V\u614b
sI646
V\u704c
sI647
V\u6451
sI648
V\u9ed2
sI649
V\u8a55
sI650
V\u6bd4
sI651
V\u5f57
sI652
V\u7cd6
sI653
V\u9059
sI654
V\u5fdc
sI655
V\u80de
sI656
V\u4fd1
sI657
V\u7389
sI658
Vi
sI659
V\u9b6f
sI660
V\u68ee
sI661
V\u5c71
sI662
V\u6a29
sI663
V\u6973
sI664
V\u66f2
sI665
V\u63f4
sI666
V\u5cf6
sI667
Vy
sI668
V\u967d
sI669
V\u732b
sI670
V\u5264
sI671
V\u6f81
sI672
V\u4e00
sI673
V\u52c7
sI674
V\u5185
sI675
V\u5b89
sI676
V\u8208
sI677
V\u990a
sI678
V\u540c
sI679
V\u7dac
sI680
V\uff91
sI681
V\u7814
sI682
V\u8a18
sI683
V\u811a
sI684
V\u82db
sI685
V\u609f
sI686
V\u51a5
sI687
V\u7387
sI688
V\u73a9
sI689
V\u8ddd
sI690
V\u66ab
sI691
V\u592a
sI692
V\u7dad
sI693
V\u642c
sI694
V\u732e
sI695
V\u90fd
sI696
V\u6d32
sI697
V\u5834
sI698
V\u5bb9
sI699
V\u6238
sI700
V\u793a
sI701
V\u60a3
sI702
V\u4e0a
sI703
V\u6853
sI704
V\u4ecb
sI705
V\u694a
sI706
V\u56e3
sI707
V\u50cf
sI708
V\u8fd1
sI709
V\u9650
sI710
V\u6cd7
sI711
V\u795a
sI712
V\u5ddd
sI713
V\u60df
sI714
V\u6fe1
sI715
V\u7de8
sI716
Vd
sI717
V\u5f66
sI718
V\u516a
sI719
V\u79ae
sI720
Vt
sI721
V\u8278
sI722
V\u4efb
sI723
V\u6f14
sI724
V\uff01
sI725
V\u9582
sI726
V\u4f86
sI727
V\u7a88
sI728
V\u5016
sI729
V\u8c8c
sI730
V\u6094
sI731
V\u6c17
sI732
V\u5118
sI733
V\u899a
sI734
V\u901f
sI735
V\u51c4
sI736
V\u95a2
sI737
V\u9aa8
sI738
V\u5e2b
sI739
V\u582f
sI740
V\u9bae
sI741
V\u8c37
sI742
V\u53c8
sI743
V\u8b39
sI744
V\u4e3b
sI745
V\u934b
sI746
V\u803f
sI747
V\u8074
sI748
V\u8ca1
sI749
V\u90ca
sI750
V\u6349
sI751
V\u6751
sI752
V\u6253
sI753
V\u633d
sI754
V\u6c57
sI755
V\uff7c
sI756
V\u9ad8
sI757
V\u65e2
sI758
V\u5965
sI759
V\u70e4
sI760
V\u81ea
sI761
V\u856d
sI762
V\u4f53
sI763
Vo
sI764
V\u63ee
sI765
V\uff71
sI766
V\u8a73
sI767
V\u9477
sI768
V\u9d28
sI769
V\u5055
sI770
V\u767b
sI771
V\u51fa
sI772
V\u687f
sI773
V\u5bfe
sI774
V\u8e81
sI775
V\u5f01
sI776
V\u6383
sI777
V\u8a2a
sI778
V\u6587
sI779
V\u5e06
sI780
V\u578b
sI781
V\u798f
sI782
V\u6f2c
sI783
V\u5f10
sI784
V\u6597
sI785
V\u4e16
sI786
V\u8299
sI787
V\u901a
sI788
V\u751c
sI789
V\u4ea1
sI790
V\u81fa
sI791
V\u885d
sI792
V\u9786
sI793
V\u64ad
sI794
V\u55dc
sI795
V\u5730
sI796
V\u9771
sI797
V\u68b5
sI798
V\u786b
sI799
V\u93ae
sI800
V\u56c1
sI801
V\u7740
sI802
V\u5442
sI803
V\u88c5
sI804
V\u6144
sI805
V\u95c7
sI806
V\u62c9
sI807
V\u57cb
sI808
V\u904a
sI809
V\u64cd
sI810
V\u7363
sI811
V\u91cf
sI812
V\u6750
sI813
V\u83d3
sI814
V\u4ee3
sI815
V\u571f
sI816
V\u9078
sI817
V\u52d9
sI818
V\u8b58
sI819
V\u9591
sI820
V\u778e
sI821
V\u755c
sI822
V\u79df
sI823
Vj
sI824
V\u6f70
sI825
V\u6df7
sI826
V\u67fb
sI827
Vz
sI828
V\u557c
sI829
V\u59ff
sI830
V\uff80
sI831
V\u3005
sI832
V\u5984
sI833
V\u5d07
sI834
V\u5b88
sI835
V\u908a
sI836
V\u840d
sI837
V\u5d8c
sI838
V\u7642
sI839
V\u6d17
sI840
V\u96c5
sI841
V\u86ee
sI842
V\u611f
sI843
V\u629e
sI844
V\u6e21
sI845
V\u97a0
sI846
V\u6b23
sI847
V\u5ea6
sI848
V\u8229
sI849
V\u63a8
sI850
V\u6f2b
sI851
V\u642d
sI852
V\u85ac
sI853
V\u5206
sI854
V\u68f2
sI855
V\u99b4
sI856
V\u6148
sI857
V\u6a39
sI858
V\u5bb8
sI859
V\u78ba
sI860
V\u843d
sI861
V\u7e4a
sI862
V\u6d77
sI863
V\u96c6
sI864
V\u9249
sI865
V\u8ecd
sI866
V\u9f4b
sI867
V\u68ca
sI868
V\u6b53
sI869
V\u9055
sI870
V\u671f
sI871
V\u7259
sI872
V\u6bd8
sI873
V\u50da
sI874
V\u95dc
sI875
V\u50d1
sI876
V\u6b63
sI877
Ve
sI878
V\u6027
sI879
V\u5be8
sI880
V\u976b
sI881
V\u62ee
sI882
V\u6b73
sI883
Vu
sI884
V\u81f4
sI885
V\u9577
sI886
V\u7279
sI887
V\u53f8
sI888
V\u6c7d
sI889
V\u897f
s(dp3
V\u5247
I2005
sV\u6483
I3
sV\u8302
I4
sV\u8a87
I5
sV\u308b
I6
sV\u4f0a
I7
sV\u968f
I8
sV\u9810
I9
sV\u6297
I10
sV\u6599
I11
sV\u7db4
I1784
sV\u6d1e
I12
sV\u9020
I13
sV\u822c
I14
sV\u4f5c
I15
sV\u6cb3
I16
sV\u6b32
I17
sV\u4fb5
I18
sV\u7136
I19
sV\u75b9
I20
sV\u5438
I21
sV\u773a
I128
sV\u7a3c
I23
sV\u8ac7
I24
sV\u30cb
I25
sV\u53cd
I26
sV\u79d1
I27
sV\u7b52
I29
sV\u7e54
I30
sV\u82d7
I181
sV\u6458
I32
sV\u8edf
I33
sV\u51e1
I34
sV\u9060
I201
sV\u7dba
I36
sV\u77e5
I37
sV\u9664
I38
sV\u7de9
I39
sV\u7f6a
I40
sV\u60bc
I2179
sV\u8870
I41
sV\u6cf3
I42
sV\u8b72
I43
sV\u4ff5
I44
sV\u8e74
I45
sV\u7968
I46
sV\u6101
I47
sV\u8986
I48
sV\u6c88
I49
sV\u500b
I50
sV\u758e
I51
sV\u8599
I52
sV\u7b92
I53
sV\u5f15
I54
sV\u8217
I55
sV\u679a
I56
sV\u8b1d
I57
sV\u8cc4
I884
sV\u7121
I59
sV\u9047
I2181
sV\u5d29
I61
sV\u5faa
I62
sV\u662f
I63
sV\u85ae
I64
sV\u68b0
I65
sV\u5237
I66
sV\u983b
I67
sV\u7dbe
I69
sV\u304b
I70
sV\u4fca
I71
sV\u5951
I72
sV\u78d0
I73
sV\u5bd2
I74
sV\u5178
I75
sV\u6559
I76
sV\u885b
I77
sV\u67da
I78
sV\u7dfb
I79
sV\u4e5f
I80
sV\u30e0
I81
sV\u76e4
I82
sV\u79e6
I83
sV\u5d69
I84
sV\u62ec
I85
sV\u666f
I86
sV\u4f75
I88
sV\u6ef4
I89
sV\u51f6
I90
sV\u57fa
I91
sV\u9e7f
I92
sV\u5dfe
I93
sV\u8d08
I94
sV\u4e0a
I95
sV\u540e
I96
sV\u7891
I97
sV\u9a12
I98
sV\u5e95
I99
sV\u5f14
I100
sV\u6016
I101
sV\u8499
I102
sV\u525b
I1565
sV\u7384
I1731
sV\u30a1
I105
sV\u95a3
I106
sV\u7826
I107
sV\u5ca9
I108
sV\u9d28
I109
sV\u67af
I110
sV\u68b1
I111
sV\u8db3
I112
sV\u4f34
I113
sV\u5036
I114
sV\u5538
I115
sV\u59bb
I116
sV\u9b3c
I117
sV\u5c3e
I118
sV\u8846
I119
sV\u6cc9
I120
sV\u6e4a
I121
sV\u7950
I122
sV\u8056
I123
sV\u865a
I124
sV\u8b5c
I125
sV\u90e1
I28
sV\u55e3
I127
sV\u9262
I1584
sV\u5be7
I129
sV\u9ce9
I130
sV\u62ed
I131
sV\u9054
I1762
sV\u8df3
I132
sV\u8a72
I133
sV\u53f7
I134
sV\u3076
I135
sV\u79fb
I136
sV\u767a
I732
sV\u8001
I139
sV\u6d88
I141
sV\u8e8a
I142
sV\u920d
I143
sV\u938c
I144
sV\u570f
I145
sV\u9811
I146
sV\u5a92
I147
sV\u8096
I148
sV\u8c9e
I149
sV\u51a0
I150
sV\u7523
I151
sV\u64ae
I152
sV\u8ab2
I153
sV\u30b6
I154
sV\u5439
I155
sV\u7a3d
I156
sV\u7cbe
I157
sV\u67c4
I158
sV\u73cd
I159
sV\u514b
I160
sV\u4eca
I161
sV\u524d
I162
sV\u53cc
I163
sV\u99d0
I164
sV\u5e55
I165
sV\u7fd4
I166
sV\u6357
I167
sV\u6f5f
I168
sV\u8cde
I169
sV\u3061
I170
sV\u59d1
I1720
sV\u52e2
I172
sV\u9665
I173
sV\u7de8
I174
sV\u816b
I175
sV\u676f
I176
sV\u84ee
I177
sV\u30f6
I178
sV\u56fa
I179
sV\u8102
I180
sV\u62d7
I31
sV\u6e08
I182
sV\u918d
I1005
sV\u9e93
I184
sV\u9802
I2199
sV\u96a3
I186
sV\u95a5
I187
sV\u78a7
I188
sV\u7b26
I189
sV\u5fa9
I190
sV\u62ab
I191
sV\u5206
I2202
sV\u6c34
I193
sV\u50b7
I194
sV\u7336
I195
sV\u753a
I196
sV\u983c
I197
sV\u5f3e
I198
sV\u6240
I199
sV\u65c5
I200
sV\u3060
I35
sV\u51cd
I202
sV\u304c
I203
sV\u3078
I2186
sV\u685c
I204
sV\u93e1
I205
sV\u76e3
I1179
sV\u9162
I207
sV\u5b66
I208
sV\u81ed
I209
sV\u8a70
I210
sV\u8972
I211
sV\u8df5
I212
sV\u90f7
I213
sV\u57f9
I214
sV\u9678
I215
sV\u6301
I216
sV\u6280
I217
sV\u6182
I218
sV\u6b86
I219
sV\u8f09
I220
sV\u4e88
I221
sV\u8d8a
I222
sV\u308c
I223
sV\u7b11
I224
sV\u8017
I225
sV\u8f9e
I226
sV\u5321
I227
sV\u52a0
I228
sV\u54a4
I229
sV\u8ab0
I230
sV\u8cb4
I231
sV\u5c3f
I233
sV\u6643
I234
sV\u6545
I235
sV\u84c4
I236
sV\u914d
I1357
sV\u30cc
I238
sV\u57ce
I239
sV\u7b51
I240
sV\u99d2
I241
sV\u90ce
I242
sV\u88dc
I243
sV\u6c5f
I244
sV\u9663
I245
sV\u7565
I246
sV\u9867
I247
sV\u5f69
I248
sV\u646f
I249
sV\u4e73
I250
sV\u3077
I251
sV\u53f6
I252
sV\u76f8
I253
sV\u75fa
I254
sV\u597d
I255
sV\u98fc
I256
sV\u8987
I257
sV\u4e89
I258
sV\u738b
I259
sV\u308d
I260
sV\u5f93
I261
sV\u7d14
I262
sV\u689d
I263
sV\u691c
I264
sV\u5320
I265
sV\u57a3
I266
sV\u9022
I267
sV\u83ab
I268
sV\u51b7
I269
sV\u5236
I270
sV\u793c
I271
sV\u7dbf
I272
sV\u7e3e
I273
sV\u53cb
I275
sV\u8c4a
I276
sV\u30cd
I277
sV\u914c
I278
sV\u5b50
I279
sV\u4f38
I2220
sV\u6bdb
I281
sV\u5360
I283
sV\u3062
I284
sV\u5a66
I285
sV\u666e
I286
sV\u8b70
I287
sV\u4ff3
I288
sV\u6d74
I289
sV\u98fd
I290
sV\u5e7e
I291
sV\u8584
I292
sV\u8907
I293
sV\u6e09
I329
sV\u500d
I295
sV\u6fc3
I928
sV\u968e
I297
sV\u9f13
I298
sV\u8b1b
I299
sV\u30a2
I300
sV\u4ecb
I2485
sV\u95a4
I301
sV\u5927
I302
sV\u632b
I303
sV\u652f
I304
sV\u66ae
I305
sV\u8a31
I306
sV\u72b6
I307
sV\u934b
I308
sV\u6cca
I309
sV\u304d
I310
sV\u91cc
I311
sV\u554f
I312
sV\u5f53
I313
sV\u5c55
I314
sV\u885d
I315
sV\u6ede
I316
sV\u73e0
I317
sV\u7763
I318
sV\u30e2
I319
sV\u606d
I321
sV\u8a71
I322
sV\u4f73
I323
sV\u68f2
I324
sV\u5177
I325
sV\u54fa
I326
sV\u8702
I327
sV\u8e87
I328
sV\u5893
I1976
sV\u7b95
I330
sV\u7a14
I331
sV\u6697
I332
sV\u4f9d
I333
sV\u5420
I334
sV\u30a3
I335
sV\u6c5a
I938
sV\u5224
I337
sV\u5ea7
I338
sV\u82af
I339
sV\u6bb5
I340
sV\u8a34
I341
sV\u9038
I342
sV\u533a
I343
sV\u7fbd
I344
sV\u793e
I346
sV\u80c3
I347
sV\u83c5
I348
sV\u6848
I349
sV\u564c
I350
sV\u914e
I351
sV\u7dd1
I352
sV\u8cdb
I353
sV\u4fdd
I354
sV\u7272
I2059
sV\u7460
I355
sV\u30e3
I356
sV\u9762
I357
sV\u53e5
I358
sV\u5264
I359
sV\u7d66
I360
sV\u79e9
I361
sV\u616e
I362
sV\u6df1
I363
sV\u6c70
I364
sV\u96f7
I365
sV\u51f9
I366
sV\u9078
I367
sV\u7cfb
I368
sV\u5e7c
I369
sV\u7aff
I370
sV\u8003
I371
sV\u8305
I372
sV\u4e07
I373
sV\u6b8a
I374
sV\u5c90
I375
sV\u9813
I376
sV\u5f92
I377
sV\u8098
I378
sV\u4f1d
I379
sV\u6e9c
I380
sV\u8a1f
I381
sV\u9023
I382
sV\u611a
I383
sV\u5929
I385
sV\u98a8
I386
sV\u7baa
I387
sV\u672d
I388
sV\u77f3
I2239
sV\u622f
I390
sV\u8cb0
I391
sV\u8fb2
I392
sV\u55b6
I394
sV\u30b8
I395
sV\u5c3b
I396
sV\u904b
I397
sV\u7a3f
I398
sV\u96cc
I399
sV\u91ce
I400
sV\u7fd2
I401
sV\u63da
I402
sV\u6a5f
I403
sV\u3063
I404
sV\u77e2
I405
sV\u52e4
I406
sV\u5de6
I407
sV\u78e8
I408
sV\u676d
I409
sV\u826f
I410
sV\u6cf0
I412
sV\u306b
I1370
sV\u5a7f
I413
sV\u958b
I414
sV\u8a0a
I415
sV\u770c
I416
sV\u842c
I417
sV\u7d10
I418
sV\u5993
I419
sV\u6797
I420
sV\u6d9b
I421
sV\u6e9d
I422
sV\u7b8b
I2068
sV\u9928
I423
sV\u85ab
I424
sV\u672c
I425
sV\u89b3
I426
sV\u4e32
I827
sV\u7436
I428
sV\u30b9
I429
sV\u7dbb
I430
sV\u523a
I431
sV\u5bbf
I432
sV\u7834
I1782
sV\u64c1
I434
sV\u6642
I435
sV\u62c5
I436
sV\u8c46
I437
sV\u904e
I438
sV\u7d50
I439
sV\u59d3
I440
sV\u7b54
I441
sV\u6edd
I443
sV\u6f5c
I444
sV\u54e1
I445
sV\u7560
I446
sV\u91e3
I447
sV\u5de8
I609
sV\u5968
I449
sV\u83ef
I450
sV\u8d70
I451
sV\u3092
I953
sV\u6b74
I453
sV\u57f7
I454
sV\u9178
I455
sV\u5dfb
I456
sV\u5f7c
I87
sV\u5bff
I459
sV\u587e
I460
sV\u714e
I2097
sV\u760d
I463
sV\u708e
I464
sV\u5c11
I465
sV\u6717
I466
sV\u5225
I467
sV\u59a8
I468
sV\u7aaa
I345
sV\u862d
I442
sV\u632f
I470
sV\u7bc9
I1788
sV\u6bb4
I473
sV\u53ca
I2359
sV\u91b8
I474
sV\u5e3d
I475
sV\u4f47
I476
sV\u964d
I477
sV\u30ce
I478
sV\u9ed2
I479
sV\u50cf
I525
sV\u4e5d
I481
sV\u96e2
I482
sV\u5265
I483
sV\u53e4
I484
sV\u5869
I485
sV\u9aea
I486
sV\u4ef2
I487
sV\u74f6
I488
sV\u3079
I489
sV\u51f8
I490
sV\u5e7d
I491
sV\u7ffc
I492
sV\u98fe
I493
sV\u6f06
I494
sV\u8a08
I495
sV\u540c
I496
sV\u308f
I497
sV\u99ac
I2256
sV\u7a93
I499
sV\u7814
I500
sV\u8218
I501
sV\u4e9b
I502
sV\u811a
I503
sV\u52a3
I504
sV\u51a5
I505
sV\u5024
I506
sV\u7ca7
I507
sV\u5f26
I508
sV\u9a28
I509
sV\u66ab
I510
sV\u592a
I511
sV\u65ad
I512
sV\u642c
I513
sV\u80af
I514
sV\u8fb1
I515
sV\u80b2
I516
sV\u88df
I517
sV\u5238
I518
sV\u9ebb
I519
sV\u5c3c
I520
sV\u8e0a
I521
sV\u8cc7
I522
sV\u4f46
I523
sV\u694a
I524
sV\u70cf
I1184
sV\u9854
I526
sV\u6756
I527
sV\u662d
I469
sV\u8ddd
I528
sV\u68df
I529
sV\u71e5
I530
sV\u3064
I531
sV\u7ce7
I532
sV\u5f66
I533
sV\u5be9
I534
sV\u596a
I535
sV\u65ed
I536
sV\u846c
I537
sV\u636e
I538
sV\u6ff1
I539
sV\u5efb
I541
sV\u6f14
I1386
sV\u8105
I543
sV\u4f86
I544
sV\u698a
I545
sV\u548c
I546
sV\u900f
I547
sV\u9a13
I548
sV\u5915
I549
sV\u30ef
I1800
sV\u6319
I550
sV\u6298
I551
sV\u6e1b
I552
sV\u819a
I553
sV\u60a9
I2393
sV\u96a0
I554
sV\u95a2
I555
sV\u30a4
I556
sV\u9aa8
I557
sV\u852d
I558
sV\u602f
I559
sV\u8a33
I560
sV\u6db2
I561
sV\u5339
I562
sV\u70b9
I2569
sV\u504f
I730
sV\u53ce
I564
sV\u7dd2
I565
sV\u8457
I566
sV\u62d8
I567
sV\u8cdc
I568
sV\u7761
I569
sV\u56e0
I570
sV\u5263
I571
sV\u75e2
I572
sV\u5165
I573
sV\u30e4
I574
sV\u866b
I575
sV\u59ea
I576
sV\u856d
I577
sV\u84ec
I782
sV\u606f
I579
sV\u63ee
I580
sV\u4ef0
I581
sV\u8a73
I582
sV\u6975
I583
sV\u5e7b
I584
sV\u51fa
I585
sV\u5bfe
I586
sV\u6681
I587
sV\u6700
I588
sV\u6383
I589
sV\u72ec
I1371
sV\u8a89
I590
sV\u578b
I591
sV\u6597
I592
sV\u4f9b
I868
sV\u8c9d
I594
sV\u3084
I1809
sV\u7720
I596
sV\u7422
I597
sV\u30a5
I598
sV\u7e26
I599
sV\u582a
I600
sV\u64ad
I601
sV\u52b9
I602
sV\u63c3
I603
sV\u6442
I604
sV\u60c5
I605
sV\u57cb
I606
sV\u754c
I607
sV\u91cf
I608
sV\u5954
I610
sV\u65d7
I611
sV\u62d9
I612
sV\u8358
I613
sV\u6d5c
I614
sV\u8a5e
I615
sV\u53e3
I616
sV\u30e5
I617
sV\u5de7
I618
sV\u656c
I619
sV\u626e
I620
sV\u6f70
I621
sV\u6c72
I622
sV\u4fbf
I1395
sV\u9676
I624
sV\u5378
I625
sV\u7ffb
I626
sV\u907a
I1054
sV\u99ff
I1061
sV\u30c1
I1396
sV\u8005
I630
sV\u4e86
I631
sV\u570b
I633
sV\u540d
I634
sV\u5f90
I635
sV\u7c92
I636
sV\u5815
I1100
sV\u6696
I638
sV\u6398
I639
sV\u8a9e
I640
sV\u97a0
I1129
sV\u91a4
I641
sV\u5ea6
I1141
sV\u672b
I643
sV\u642d
I644
sV\u65ac
I1157
sV\u8fb0
I646
sV\u8b33
I647
sV\u7537
I648
sV\u9f3b
I649
sV\u70ba
I1183
sV\u5c3d
I651
sS'E'
I0
sV\u9855
I654
sV\u59d4
I655
sV\u6557
I656
sV\u66d6
I1229
sV\u60da
I658
sV\u637b
I2284
sV\u895f
I660
sV\u7363
I661
sV\u5065
I662
sV\u9be8
I1255
sV\u65ec
I664
sV\u4e71
I665
sV\u8ff0
I666
sV\u6b73
I667
sV\u9577
I668
sV\u96f6
I669
sV\u7279
I670
sV\u53f8
I671
sV\u8981
I672
sV\u8106
I673
sV\u6589
I674
sV\u5e8f
I675
sV\u5d0e
I676
sV\u5191
I677
sV\u9010
I678
sV\u5614
I679
sV\u6d99
I680
sV\u809b
I681
sV\u4f1a
I682
sV\u5b22
I683
sV\u7126
I684
sV\u88ab
I685
sV\u30bb
I686
sV\u76bf
I687
sV\u553e
I688
sV\u30e1
I126
sV\u8cc3
I690
sV\u8fc5
I691
sV\u91d1
I692
sV\u3050
I693
sV\u5352
I694
sV\u9591
I695
sV\u52e7
I696
sV\u75e9
I698
sV\u5468
I699
sV\u576a
I700
sV\u6d6e
I701
sV\u7c3e
I2138
sV\u67f5
I702
sV\u6674
I703
sV\u9df9
I704
sV\u5e97
I2295
sV\u92ed
I1408
sV\u3090
I1961
sV\u9694
I708
sV\u8a17
I709
sV\u8996
I710
sV\u629c
I711
sV\u661f
I712
sV\u9921
I713
sV\u5ba2
I714
sV\u5f25
I715
sV\u8aac
I716
sV\u6e2f
I717
sV\u8131
I718
sV\u63b2
I719
sV\u66b4
I720
sV\u9589
I1934
sV\u7d39
I721
sV\u5cb8
I722
sV\u963f
I723
sV\u75be
I724
sV\u8247
I461
sV\u81c6
I726
sV\u5076
I727
sV\u5acc
I728
sV\u30d0
I729
sV\u304f
I563
sV\u59fb
I731
sV\u967a
I137
sV\u7267
I733
sV\u51e6
I734
sV\u54e8
I735
sV\u56f2
I2457
sV\u6e6f
I736
sV\u66f4
I737
sV\u7d79
I738
sV\u7cf8
I739
sV\u307b
I740
sV\u92fc
I741
sV\u6881
I742
sV\u6900
I1766
sV\u8a02
I743
sV\u5b0c
I745
sV\u5c0e
I746
sV\u5091
I747
sV\u9593
I748
sV\u6816
I749
sV\u6c99
I750
sV\u829d
I751
sV\u93a7
I752
sV\u7528
I753
sV\u962a
I754
sV\u8aad
I755
sV\u30b3
I2305
sV\u6734
I757
sV\u543e
I758
sV\u88c1
I759
sV\u6ec5
I761
sV\u8f44
I762
sV\u79cb
I763
sV\u30d1
I764
sV\u5150
I765
sV\u62dd
I766
sV\u635c
I767
sV\u5de3
I768
sV\u3066
I769
sV\u8aed
I770
sV\u6fef
I771
sV\u8170
I772
sV\u8272
I773
sV\u7f85
I2575
sV\u97ff
I774
sV\u6e05
I776
sV\u6f84
I777
sV\u6307
I778
sV\u868a
I779
sV\u5b8c
I780
sV\u5f0f
I781
sV\u64ec
I578
sV\u9190
I783
sV\u306f
I1848
sV\u8b17
I785
sV\u8896
I744
sV\u611b
I787
sV\u671f
I788
sV\u66c7
I789
sV\u30a6
I790
sV\u8a2d
I791
sV\u4f2f
I792
sV\uff1f
I1422
sV\u9c39
I794
sV\u9eba
I795
sV\u723d
I796
sV\u6841
I797
sV\u4e45
I798
sV\u80c6
I799
sV\u8449
I800
sV\u7a4d
I801
sV\u5bcc
I802
sV\u3051
I803
sV\u5553
I804
sV\u6dd8
I805
sV\u83dc
I806
sV\u675f
I807
sV\u30e6
I808
sV\u96ea
I809
sV\u67f4
I810
sV\u5efa
I811
sV\u727d
I812
sV\u8a00
I814
sV\u8d85
I815
sV\u567a
I817
sV\u6897
I818
sV\u4e18
I819
sV\u819d
I820
sV\u601c
I821
sV\u7ba1
I822
sV\u5a20
I823
sV\u5922
I824
sV\u30a7
I825
sV\u9326
I826
sV\u8caf
I829
sV\u83b1
I2392
sV\u5fb9
I830
sV\u5e38
I831
sV\u7d3a
I832
sV\u8de1
I2325
sV\u5b87
I1380
sV\u60c7
I834
sV\u7acb
I835
sV\u984c
I836
sV\u9152
I837
sV\u75d5
I838
sV\u6e58
I839
sV\u62db
I840
sV\u820e
I1857
sV\u5be1
I842
sV\u5ee3
I843
sV\u5962
I844
sV\u5de5
I845
sV\u5c64
I846
sV\u30e7
I847
sV\u5668
I848
sV\u756a
I849
sV\u6f6e
I850
sV\u83f1
I851
sV\u66f3
I852
sV\u5e78
I853
sV\u51fd
I854
sV\u907c
I632
sV\u6a80
I856
sV\u4e03
I857
sV\u6982
I858
sV\u8d05
I859
sV\u6709
I860
sV\u7a0b
I861
sV\u5c0f
I862
sV\u7f8e
I863
sV\u5192
I864
sV\u6817
I865
sV\u6b96
I866
sV\u821b
I867
sV\u8f9b
I593
sV\u7027
I869
sV\u7729
I870
sV\u6a2b
I871
sV\u55aa
I872
sV\u4fae
I873
sV\u30b2
I2259
sV\u61b2
I874
sV\u8535
I875
sV\u9837
I876
sV\u5bb6
I877
sV\u523b
I878
sV\u5dba
I879
sV\u30bc
I880
sV\u4e43
I881
sV\u8eca
I882
sV\u6d45
I883
sV\u6cc4
I58
sV\u6749
I885
sV\u58cc
I886
sV\u5351
I887
sV\u8857
I888
sV\u4f59
I889
sV\u4ed8
I890
sV\u60dc
I891
sV\u7ae0
I892
sV\u5e63
I893
sV\u3067
I894
sV\u9769
I895
sV\u96e8
I896
sV\u8a6b
I138
sV\u4e26
I1862
sV\u696d
I899
sV\u4fee
I900
sV\u61f2
I901
sV\u6575
I902
sV\u5f79
I903
sV\u7e55
I904
sV\u9dfa
I905
sV\u30fc
I906
sV\u8b00
I907
sV\u6708
I908
sV\u5b8b
I909
sV\u990c
I910
sV\u9d8f
I911
sV\u5012
I912
sV\u8997
I913
sV\u639b
I914
sV\u809d
I915
sV\u7b20
I916
sV\u6607
I1025
sV\u5728
I918
sV\u6daf
I919
sV\u62b1
I813
sV\u8f5f
I921
sV\u9eb9
I922
sV\u53bb
I923
sV\u5c3a
I924
sV\u30bd
I925
sV\u713c
I926
sV\u9061
I927
sV\u4fc3
I296
sV\u6842
I929
sV\u6d44
I930
sV\u61c7
I931
sV\u7dcf
I932
sV\u97d3
I933
sV\u3052
I934
sV\u4ed9
I935
sV\u6f58
I936
sV\u63db
I937
sV\u8c5a
I336
sV\u9ce5
I939
sV\u91e7
I940
sV\u546a
I941
sV\u8def
I942
sV\u82f1
I943
sV\u67f3
I944
sV\u6574
I945
sV\u7a76
I946
sV\u90fd
I947
sV\u517c
I948
sV\u767e
I949
sV\u8f03
I950
sV\u8107
I951
sV\u5211
I952
sV\u7092
I452
sV\u601d
I954
sV\u819c
I955
sV\u5629
I956
sV\u4eae
I957
sV\u60b2
I959
sV\u533b
I960
sV\u4f43
I961
sV\u88c2
I962
sV\u7b4b
I963
sV\u984d
I964
sV\u30d2
I965
sV\u75d4
I966
sV\u8ad6
I967
sV\u4e59
I968
sV\u7be0
I969
sV\u98e2
I970
sV\u5c65
I971
sV\u7167
I972
sV\u4eee
I973
sV\u6271
I974
sV\u8475
I975
sV\u7977
I976
sV\u7af6
I977
sV\u5e79
I978
sV\u507d
I1291
sV\u757f
I980
sV\u76fe
I981
sV\u6f02
I982
sV\u6687
I983
sV\u7c8b
I984
sV\u9f8d
I985
sV\u5e0c
I986
sV\u790e
I987
sV\u7591
I988
sV\u5410
I697
sV\u3093
I990
sV\u5712
I991
sV\u679d
I992
sV\u7531
I2348
sV\u74b0
I2349
sV\u8cab
I994
sV\u732a
I995
sV\u6e2c
I996
sV\u6234
I997
sV\u5eb7
I998
sV\u4e08
I999
sV\u59b9
I1000
sV\u9838
I1001
sV\u6bc5
I1002
sV\u86c7
I1003
sV\u61c9
I1004
sV\u518d
I183
sV\u5fcd
I1006
sV\u5e4c
I1007
sV\u30d3
I1009
sV\u9752
I1010
sV\u8b5a
I1011
sV\u865c
I1012
sV\u5de1
I1013
sV\u7c60
I1014
sV\u9f62
I775
sV\u76e7
I1016
sV\u3068
I1017
sV\u8fed
I1018
sV\u60f3
I1019
sV\u6912
I1456
sV\u5ef7
I1021
sV\u7d76
I1022
sV\u52ff
I1023
sV\u6803
I1024
sV\u8607
I917
sV\u6109
I1026
sV\u5c0b
I1027
sV\u671d
I1029
sV\u821f
I1030
sV\u7d21
I1031
sV\u7f70
I1887
sV\u30a8
I1033
sV\u4eac
I1034
sV\u8033
I1035
sV\u30c8
I2358
sV\u96bc
I1037
sV\u71be
I1038
sV\u6d41
I1039
sV\u8cc0
I1040
sV\u6843
I1041
sV\u4fc2
I1042
sV\u5c4b
I1043
sV\u83ca
I1044
sV\u7a4f
I1045
sV\u7551
I1046
sV\u9053
I1059
sV\u4e57
I1049
sV\u845b
I1050
sV\u66dc
I1051
sV\u7d61
I1052
sV\u5ce0
I1053
sV\u307a
I627
sV\u7169
I1056
sV\u90e8
I1057
sV\u53ea
I1058
sV\u3053
I1047
sV\u7fa9
I1060
sV\u59ff
I628
sV\u5bfa
I1062
sV\u82b1
I920
sV\u6b04
I1063
sV\u8089
I1064
sV\u8108
I1065
sV\u5d8b
I1066
sV\uff0c
I1067
sV\u5b8f
I1068
sV\u5510
I1069
sV\u871c
I1071
sV\u5ca1
I1072
sV\u7d20
I1073
sV\u5426
I1074
sV\u30a9
I1075
sV\u722a
I1076
sV\u4ead
I1077
sV\u6f2c
I1078
sV\u81b3
I1079
sV\u62b5
I1080
sV\u5b88
I1893
sV\u773c
I1081
sV\u6cc1
I1082
sV\u30b7
I1083
sV\u6148
I1274
sV\u7652
I1084
sV\u52d5
I1085
sV\u5354
I1086
sV\u4fd7
I1087
sV\u675c
I1088
sV\u805e
I1089
sV\u5ce1
I1090
sV\u7ae5
I1091
sV\u5b64
I1092
sV\u30e9
I1093
sV\u5168
I1094
sV\u6deb
I1095
sV\u6570
I1096
sV\u81f3
I1097
sV\u8cbf
I1471
sV\u30e8
I1099
sV\u7815
I637
sV\u7a7a
I1101
sV\u56fd
I1102
sV\u307e
I1103
sV\u7d0b
I1104
sV\u628a
I1105
sV\u5f8c
I1106
sV\u5411
I1107
sV\u6c96
I1108
sV\u75c5
I1472
sV\u679c
I1110
sV\u631f
I1111
sV\u7c21
I1112
sV\u5ba4
I1113
sV\u5727
I1114
sV\u51a8
I1115
sV\u52aa
I1116
sV\u4e2d
I1117
sV\u65b0
I1118
sV\u8133
I1119
sV\u8235
I1120
sV\u63b4
I1121
sV\u5f37
I1122
sV\u9375
I2372
sV\u753b
I1124
sV\u533f
I1125
sV\u50be
I1126
sV\u6c41
I1127
sV\u6dc0
I1128
sV\u91cd
I1130
sV\u7e4d
I1131
sV\u5fcc
I1132
sV\u5451
I1048
sV\u69d8
I1134
sV\u80de
I1135
sV\u7de0
I1136
sV\u7be4
I1138
sV\u74e6
I1139
sV\u9069
I1140
sV\u9ea6
I642
sV\u6b6f
I1142
sV\u68ee
I1143
sV\u8471
I1144
sV\u66f2
I1145
sV\u63f4
I1146
sV\u5f77
I1147
sV\u5cf6
I1148
sV\u767d
I1150
sV\u57fc
I1151
sV\u4e00
I1152
sV\u6804
I1153
sV\u8389
I1154
sV\u8208
I1155
sV\u810a
I1156
sV\u85ac
I645
sV\u9014
I1158
sV\u8a18
I1159
sV\u609f
I1160
sV\u5fa1
I1161
sV\u7d22
I1162
sV\u59a5
I1163
sV\u5824
I1164
sV\u74a7
I1165
sV\u73a9
I1166
sV\u8eab
I1167
sV\u512a
I1168
sV\u3089
I2380
sV\u82b3
I1170
sV\u7f36
I1171
sV\u5bb9
I1172
sV\u96bb
I1173
sV\u793a
I1174
sV\u30bf
I1175
sV\u6fc1
I1177
sV\u63c9
I1178
sV\u96e3
I206
sV\u9650
I1180
sV\u3054
I1181
sV\u6a58
I1182
sV\u30cf
I480
sV\u30ba
I650
sV\u5766
I1185
sV\u53e9
I1186
sV\u8b66
I1483
sV\u67f1
I1189
sV\u62f3
I1190
sV\u8074
I1191
sV\u96fb
I1192
sV\u547c
I1193
sV\u6f01
I1194
sV\u6e80
I1195
sV\u6905
I1196
sV\u7d0d
I1197
sV\u9b8e
I1198
sV\u6c17
I1199
sV\u8b19
I1200
sV\u8a98
I1201
sV\u899a
I1202
sV\u8cac
I1203
sV\u6731
I1204
sV\u80b4
I1205
sV\u7b39
I1206
sV\u6df5
I1207
sV\u963b
I1208
sV\u8ca1
I2391
sV\u68c4
I1210
sV\u8349
I1211
sV\u7e4b
I1212
sV\u30d4
I1213
sV\u6c57
I1214
sV\u805f
I1215
sV\u5965
I1216
sV\u51ea
I1217
sV\u6b53
I1916
sV\u6771
I1218
sV\u66f0
I68
sV\u80f4
I1220
sV\u767b
I1221
sV\u907f
I1222
sV\u73fe
I1223
sV\u8b83
I1224
sV\u6885
I1225
sV\u6587
I1226
sV\u6606
I1227
sV\u5f8b
I1228
sV\u798f
I1230
sV\u7a0e
I1231
sV\u4e16
I1232
sV\u821e
I1233
sV\u9f20
I1234
sV\u5ba3
I1235
sV\u30da
I1918
sV\u55a7
I1237
sV\u7530
I2397
sV\u52a9
I1238
sV\u583a
I1239
sV\u4ec1
I1240
sV\u6c42
I1241
sV\u88c5
I1242
sV\u62c9
I1243
sV\u7d4c
I1244
sV\u96d1
I1245
sV\u50d5
I1246
sV\u9154
I1247
sV\u6e56
I1248
sV\u8b58
I1249
sV\u72e9
I1250
sV\u8feb
I1251
sV\u306a
I1252
sV\u8ced
I1253
sV\u5df7
I1254
sV\u7af9
I1256
sV\u97fb
I1257
sV\u4e01
I1258
sV\u6388
I1260
sV\u590f
I1261
sV\u6d17
I1262
sV\u6e96
I1263
sV\u6a19
I1264
sV\u671b
I1265
sV\u659c
I1266
sV\u611f
I1267
sV\u629e
I1268
sV\u5229
I1269
sV\u53a8
I1270
sV\u6f2b
I1271
sV\u30aa
I1272
sV\u64b2
I1273
sV\u5eb6
I2486
sV\u7bb8
I1275
sV\u78ba
I1276
sV\u6fc0
I1277
sV\u72a0
I1278
sV\u6249
I1279
sV\u9f4b
I1280
sV\u7c4d
I1281
sV\u594f
I1282
sV\u5353
I1283
sV\u9055
I1284
sV\u4ed6
I1285
sV\u68da
I1286
sV\u5e61
I1287
sV\u5fe0
I2565
sV\u5b63
I1288
sV\u7269
I1289
sV\u30ea
I1290
sV\u8aee
I1292
sV\u6075
I1293
sV\u81f4
I1294
sV\u5ef6
I1295
sV\u5bf8
I1296
sV\u547d
I1297
sV\u52fe
I1298
sV\u9000
I1299
sV\u5302
I1300
sV\u5f0a
I1301
sV\u820c
I1302
sV\u50ac
I1504
sV\u50b5
I2560
sV\u9418
I1304
sV\u5b9d
I1305
sV\u7a1c
I2105
sV\u6020
I1306
sV\u9a5a
I2410
sV\u30ab
I1308
sV\u8f2a
I1309
sV\u722c
I1310
sV\u5830
I1311
sV\u5cb3
I1312
sV\u65b9
I1313
sV\u673a
I1314
sV\u8a3c
I1315
sV\u6d3e
I1316
sV\u5c48
I1317
sV\u854e
I1318
sV\u6850
I1319
sV\u8cd3
I1320
sV\u98db
I1321
sV\u5bdd
I1322
sV\u7d5e
I1323
sV\u30eb
I1324
sV\u73ed
I1325
sV\u9cf3
I1326
sV\u5ff5
I1327
sV\u5e74
I1328
sV\u6176
I1329
sV\u3080
I1332
sV\u7403
I1333
sV\u7684
I1335
sV\u7f8a
I1336
sV\u658e
I1337
sV\u4e94
I1338
sV\u5217
I1339
sV\u60a0
I1340
sV\u63a2
I1341
sV\u6d29
I1342
sV\u8ca8
I1343
sV\u502b
I1344
sV\u72ac
I1345
sV\u5931
I1346
sV\u5f35
I1347
sV\u8237
I1348
sV\u61b6
I1349
sV\u6539
I1350
sV\u84b8
I1351
sV\u6b3d
I1352
sV\u30c0
I1353
sV\u53c2
I1354
sV\u96c4
I1355
sV\u99c6
I1356
sV\u514d
I237
sV\u604b
I1358
sV\u6bd2
I1359
sV\u4f55
I1360
sV\u4ed4
I1361
sV\u7559
I1362
sV\u70b8
I2319
sV\u5b5d
I1363
sV\u7adc
I1364
sV\u5dde
I1365
sV\u6765
I1366
sV\u89e6
I1367
sV\u6d69
I1368
sV\u6ce8
I1369
sV\u706b
I458
sV\u707d
I979
sV\u58f0
I1372
sV\u7c73
I1373
sV\u79d2
I1374
sV\u7f75
I1375
sV\u59cb
I1908
sV\u6e7f
I1376
sV\u3081
I1377
sV\u5100
I1378
sV\u9685
I1379
sV\u7b87
I760
sV\u9806
I1381
sV\u7c89
I1382
sV\u5bc4
I2440
sV\u8910
I1384
sV\u4e95
I1385
sV\u8f14
I542
sV\u5016
I1387
sV\u7518
I1388
sV\u80a1
I1389
sV\u8ca9
I1390
sV\u92ad
I1391
sV\u932c
I1392
sV\u7a32
I1393
sV\u5eb5
I1394
sV\u8fbf
I623
sV\u90c1
I629
sV\u96c5
I1397
sV\u7bc7
I1398
sV\u62e0
I1521
sV\u7e4a
I1399
sV\u62cd
I1400
sV\u67cf
I1401
sV\u4ed5
I1402
sV\u6f54
I1403
sV\u53d7
I1404
sV\u3056
I1405
sV\u5c5e
I1406
sV\u80e1
I1407
sV\u72ed
I706
sV\u77ef
I1409
sV\u5df3
I1410
sV\u69fb
I1411
sV\u667a
I1412
sV\u9001
I1413
sV\u9784
I1414
sV\u8840
I689
sV\u5c09
I1415
sV\u5e8a
I1416
sV\u638c
I1417
sV\u30ec
I1524
sV\u6e15
I1418
sV\u5317
I1419
sV\u5598
I786
sV\u5b9c
I1421
sV\u5f1f
I793
sV\u81a0
I1423
sV\u6625
I1424
sV\u6b27
I1425
sV\u5831
I1426
sV\u7d33
I1427
sV\u5fb4
I1428
sV\u6a3d
I1429
sV\u8f3f
I1430
sV\u3041
I1431
sV\u72c2
I1432
sV\u9077
I1433
sV\u614b
I1434
sV\u5eca
I1435
sV\u624d
I1436
sV\u83cc
I1437
sV\u674f
I1438
sV\u6851
I1439
sV\u8fd4
I1440
sV\u5357
I1441
sV\u30d6
I1442
sV\u95d8
I1443
sV\u56da
I1444
sV\u8061
I1445
sV\u6563
I1446
sV\u9727
I1447
sV\u516b
I1448
sV\u53ec
I1449
sV\u79f0
I1450
sV\u8377
I1451
sV\u4f7f
I1452
sV\u5200
I1453
sV\u5404
I1454
sV\u828b
I1455
sV\u7956
I1969
sV\u8912
I1020
sV\u5316
I1457
sV\u5618
I1458
sV\u5a9b
I1459
sV\u751a
I1460
sV\u7c9f
I1462
sV\u63a1
I1463
sV\u52ab
I1464
sV\u6d2a
I1465
sV\u702c
I1466
sV\u7bb1
I1467
sV\u9a30
I1468
sV\u8336
I1469
sV\u683c
I1470
sV\u6cbf
I1098
sV\u55c5
I1109
sV\u58c7
I1473
sV\u7b46
I1474
sV\u508d
I1475
sV\u7a92
I1476
sV\u674e
I1477
sV\u8a50
I1478
sV\u30d7
I1479
sV\u63e1
I1480
sV\u6162
I1481
sV\u65e5
I1482
sV\u6b66
I1187
sV\u725b
I2187
sV\u6d6a
I1484
sV\u306c
I1485
sV\u65e9
I1974
sV\u733f
I1487
sV\u87f9
I1488
sV\u6afb
I1489
sV\u30be
I1490
sV\u69fd
I1491
sV\u5d14
I1492
sV\u9280
I1493
sV\u808c
I1494
sV\u6e13
I1495
sV\u9396
I1496
sV\u559a
I1497
sV\u589c
I1498
sV\u7f9e
I1820
sV\u64a4
I1500
sV\u3070
I1977
sV\u8f29
I1502
sV\u912d
I1503
sV\u30ac
I1303
sV\u9b31
I1505
sV\u3049
I2442
sV\u5e33
I1507
sV\u8a2a
I2543
sV\u5341
I1509
sV\u5bc6
I1510
sV\u624b
I1511
sV\u7dca
I1512
sV\u80cc
I1513
sV\u7fcc
I1514
sV\u9a19
I2598
sV\u89d2
I1515
sV\u3057
I1517
sV\u53d6
I1518
sV\u9759
I1519
sV\u6d77
I2632
sV\u795d
I1520
sV\u9451
I1133
sV\u6867
I1522
sV\u62fe
I2635
sV\u516d
I1523
sV\u307d
I663
sV\u5e73
I1525
sV\u7d75
I1526
sV\u9cf4
I1527
sV\u8077
I1528
sV\u66f8
I1529
sV\u5f01
I2500
sV\u65fa
I1530
sV\u697d
I1531
sV\u3002
I1532
sV\u5504
I1533
sV\u30ad
I1543
sV\u5c0a
I1535
sV\u660e
I1536
sV\u5197
I1537
sV\u9699
I1538
sV\u5b9b
I1539
sV\u591c
I1540
sV\u7e1e
I1508
sV\u64a5
I1541
sV\u89a7
I1542
sV\u70ad
I1534
sV\u5854
I1544
sV\u5fb3
I1545
sV\u7832
I1546
sV\u8236
I1547
sV\u6bbb
I1548
sV\u643a
I1549
sV\u6e3e
I1550
sV\u57c3
I1551
sV\u3042
I1552
sV\u5a46
I1553
sV\u7236
I1554
sV\u614c
I1555
sV\u65cf
I1556
sV\u864e
I1557
sV\u8ee2
I2451
sV\u6cd5
I1558
sV\u71d7
I1559
sV\u5256
I1560
sV\u30d5
I2283
sV\u5bdb
I1561
sV\u745a
I1562
sV\u62e1
I1563
sV\u8a66
I1564
sV\u53eb
I1566
sV\u8c6a
I1567
sV\u30ed
I1568
sV\u516c
I1569
sV\u718a
I2504
sV\u3069
I1570
sV\u8276
I1571
sV\u66f9
I1572
sV\u88fd
I1573
sV\u697c
I1574
sV\u901f
I2507
sV\u6e7e
I140
sV\u3082
I1576
sV\u5584
I1577
sV\u9996
I1990
sV\u9042
I1579
sV\u7b1b
I1580
sV\u80a2
I1581
sV\u6e29
I1582
sV\u732b
I1583
sV\u8caa
I1764
sV\u51ac
I1585
sV\u552f
I1586
sV\u76ae
I1587
sV\u5bb0
I1588
sV\u76f2
I2058
sV\u9db4
I1590
sV\u683d
I1591
sV\u5c4a
I1592
sV\u7f77
I1593
sV\u5947
I1594
sV\u50cd
I1595
sV\u7cca
I1596
sV\u654f
I1597
sV\u714c
I1598
sV\u4f53
I1599
sV\u68d2
I1600
sV\u6bba
I2351
sV\u785d
I1601
sV\u59dc
I1602
sV\u85e4
I1603
sV\u7b50
I1604
sV\u967d
I1605
sV\u8cea
I1606
sV\u306d
I1607
sV\u76ee
I1608
sV\u58f2
I1609
sV\u7df4
I1610
sV\u62f6
I1611
sV\u8679
I1612
sV\u6b7b
I1613
sV\u3083
I1614
sV\u9808
I1615
sV\u878d
I1616
sV\u660c
I1617
sV\u5199
I1618
sV\u7c9b
I1619
sV\u9bdb
I1620
sV\u7a9f
I1621
sV\u60a3
I1622
sV\u63a5
I1623
sV\u30b0
I1997
sV\u77ad
I1624
sV\u72af
I1625
sV\u7db1
I1626
sV\u58b3
I1627
sV\u5bb5
I1629
sV\u6cbb
I1630
sV\u4e3c
I1631
sV\u8abf
I1632
sV\u30c3
I1633
sV\u5742
I1634
sV\u9244
I1635
sV\u7d46
I1636
sV\u59c9
I1637
sV\u84cb
I1638
sV\u814e
I897
sV\u6dd1
I1641
sV\u6c50
I1642
sV\u76d7
I1643
sV\u8cb8
I1999
sV\u3058
I1645
sV\u535a
I1646
sV\u795e
I1647
sV\u60e3
I1648
sV\u6d66
I1649
sV\u8868
I1650
sV\u6b6a
I1651
sV\u77ed
I1652
sV\u766c
I1653
sV\u716e
I1654
sV\u5df1
I1655
sV\u7f72
I1656
sV\u7a74
I1657
sV\u8ffd
I1658
sV\u9003
I1659
sV\u5782
I1660
sV\u5305
I1661
sV\u5909
I1662
sV\u90ed
I1663
sV\u670d
I1664
sV\u916c
I1665
sV\u6813
I1666
sV\u7119
I1667
sV\u5098
I1668
sV\u539a
I1669
sV\u5e9c
I1670
sV\u6247
I725
sV\u68a8
I1672
sV\u542b
I1673
sV\u572d
I1674
sV\u8d74
I1675
sV\u54c0
I1676
sV\u3043
I1677
sV\u7345
I1678
sV\u5949
I1461
sV\u6276
I1680
sV\u8853
I1681
sV\u7159
I1682
sV\u30d8
I1683
sV\u6e67
I1684
sV\u526f
I1685
sV\u7d71
I1686
sV\u5cf0
I1687
sV\u5b75
I1688
sV\u8179
I1689
sV\u80f8
I1690
sV\u4e7e
I1575
sV\u4eab
I1692
sV\u9285
I1693
sV\u5c06
I1694
sV\u8a95
I1695
sV\u5099
I1696
sV\u5b9f
I1697
sV\u82a5
I1698
sV\u55ab
I1699
sV\u6a2a
I1700
sV\u902e
I1701
sV\u4e09
I294
sV\u99b3
I1703
sV\u7532
I2478
sV\u4fe1
I2494
sV\u4f3c
I1704
sV\u6bbf
I1705
sV\u54c1
I1706
sV\u71c3
I1707
sV\u7642
I1708
sV\u7344
I1709
sV\u5948
I1710
sV\u65cb
I1711
sV\u86cd
I1712
sV\u63cf
I1713
sV\u8cd1
I1714
sV\u30d9
I1715
sV\u5bdf
I1716
sV\u585e
I22
sV\u81e3
I1718
sV\u82e5
I1719
sV\u5f13
I1721
sV\u53ef
I1722
sV\u306e
I472
sV\u5e72
I1724
sV\u60f9
I1725
sV\u8178
I1726
sV\u6dfb
I1727
sV\u8efd
I1728
sV\u786b
I2011
sV\u9580
I1730
sV\u76db
I2492
sV\u5384
I104
sV\u6c11
I1732
sV\u4e92
I1733
sV\u5019
I1734
sV\u7d1b
I1735
sV\u929a
I1736
sV\u5e1d
I1737
sV\u77ac
I1738
sV\u932f
I1739
sV\u30ae
I1740
sV\u5c31
I1741
sV\u5bb4
I1742
sV\u8737
I1743
sV\u6d3b
I1744
sV\u8fbc
I1745
sV\u5143
I1746
sV\u80ce
I1747
sV\u6953
I1748
sV\u8ed2
I1749
sV\u8a55
I1750
sV\u6bd4
I1751
sV\u3059
I1752
sV\u91d8
I1753
sV\u5fdc
I1754
sV\u6163
I1755
sV\u907d
I1756
sV\u72fc
I1757
sV\u5c71
I1758
sV\u5973
I1759
sV\u61f8
I1760
sV\u82fa
I1761
sV\u88fe
I1420
sV\u9283
I1763
sV\u5185
I1765
sV\u5b89
I1767
sV\u990a
I1768
sV\u840c
I1769
sV\u830e
I1771
sV\u8a93
I1772
sV\u6d12
I1773
sV\u711a
I1774
sV\u56db
I1775
sV\u6620
I1776
sV\u8ca7
I1777
sV\u30af
I1779
sV\u732e
I1780
sV\u5e30
I1781
sV\u5834
I433
sV\u6238
I1783
sV\u6b3e
I457
sV\u9640
I462
sV\u52c3
I1786
sV\u3044
I1787
sV\u9bc9
I471
sV\u86cb
I1789
sV\u85cd
I1790
sV\u8fd1
I1791
sV\u7d62
I1792
sV\u9756
I1793
sV\u515a
I1794
sV\u5ddd
I1795
sV\u98df
I1796
sV\u6562
I1797
sV\u81e5
I1798
sV\u7766
I1799
sV\u770b
I320
sV\u936e
I1801
sV\u7e70
I1802
sV\u8776
I1803
sV\u4efb
I1804
sV\u817a
I1805
sV\u7701
I1806
sV\u5203
I1807
sV\u916a
I1808
sV\u9084
I595
sV\u5b09
I1810
sV\u598a
I1811
sV\u4f11
I1812
sV\u6e90
I1813
sV\u8a13
I1814
sV\u30c2
I1815
sV\u56e3
I1816
sV\u9298
I1817
sV\u7e1b
I1818
sV\u7947
I1819
sV\u89aa
I1821
sV\u54ac
I1822
sV\u93ae
I1823
sV\u5f31
I1824
sV\u7db2
I1825
sV\u67b6
I1826
sV\u8339
I1827
sV\u82b8
I1828
sV\u4e3b
I1829
sV\u6cbc
I171
sV\u5074
I2499
sV\u96c0
I1832
sV\u5243
I1833
sV\u8cca
I1834
sV\u5145
I1835
sV\u30c4
I1836
sV\u7b49
I1837
sV\u904d
I1838
sV\u664b
I1839
sV\u4f51
I1840
sV\u6955
I1841
sV\u52d8
I1842
sV\u6761
I1843
sV\u65e2
I1845
sV\u6b69
I1846
sV\u706f
I784
sV\u5f71
I1849
sV\u9df2
I1850
sV\u8cfc
I1851
sV\u9700
I816
sV\u3085
I1853
sV\u5104
I1854
sV\u5e06
I828
sV\u818f
I1856
sV\u620e
I841
sV\u4e91
I1858
sV\u4f10
I1859
sV\u901a
I1860
sV\u80a5
I1861
sV\u6e26
I898
sV\u682a
I1863
sV\u5bb3
I1864
sV\u62b9
I1865
sV\u8338
I1866
sV\u8fbb
I1867
sV\u4e0b
I2503
sV\u56c1
I1869
sV\u7740
I1870
sV\u5442
I1871
sV\u50c5
I1872
sV\u5144
I1873
sV\u584a
I1874
sV\u64cd
I1875
sV\u6ed1
I1877
sV\u4f50
I1878
sV\u88d5
I1879
sV\u7656
I1880
sV\u52d9
I989
sV\u5358
I1882
sV\u305a
I1883
sV\u9d5c
I1884
sV\u62bd
I2034
sV\u8ae6
I1886
sV\u5f70
I1032
sV\u5974
I1888
sV\u6676
I1889
sV\u58c1
I2037
sV\u3005
I1891
sV\u5d07
I1892
sV\u906d
I1639
sV\u670b
I1894
sV\u640d
I1895
sV\u610f
I1896
sV\u4e11
I1897
sV\u5398
I1898
sV\u67a0
I1899
sV\u6025
I1900
sV\u61a4
I1901
sV\u6a29
I1902
sV\u98f2
I1903
sV\u5835
I1904
sV\u99b4
I1176
sV\u8239
I1906
sV\u80ba
I1907
sV\u6dbc
I1188
sV\u693f
I1909
sV\u7262
I1910
sV\u5343
I1911
sV\u9045
I1912
sV\u51c4
I1913
sV\u874b
I1914
sV\u58ca
I1915
sV\u985e
I1717
sV\u7259
I1917
sV\u50da
I1236
sV\u50d1
I1919
sV\u6065
I1920
sV\u8a69
I1921
sV\u5875
I1922
sV\u6577
I1923
sV\u6279
I1924
sV\u6c7d
I1925
sV\u5e2b
I2510
sV\u897f
I1927
sV\u8afe
I1928
sV\u7981
I1929
sV\u5800
I1930
sV\u5f85
I1931
sV\u7e04
I1932
sV\u5287
I1933
sV\u5589
I232
sV\u5408
I1935
sV\u888b
I1936
sV\u970a
I1937
sV\u6191
I1938
sV\u8010
I1939
sV\u6795
I1940
sV\u6614
I1941
sV\u5916
I1942
sV\u7d99
I1943
sV\u5bae
I2513
sV\u806f
I1945
sV\u85a9
I1946
sV\u672a
I1947
sV\u9bad
I1383
sV\u71b1
I1948
sV\u54b3
I1949
sV\u9332
I1950
sV\u6c38
I1951
sV\u4f3a
I1952
sV\u653e
I1953
sV\u79c1
I1954
sV\u5840
I1955
sV\u9b42
I1956
sV\u5fc5
I1957
sV\u8c37
I2516
sV\u52c7
I1959
sV\u5146
I1960
sV\u5448
I1962
sV\u68cb
I1963
sV\u574a
I1964
sV\u6bcd
I1965
sV\u4ecf
I1966
sV\u6050
I1967
sV\u8352
I1968
sV\u9ab8
I1778
sV\u30db
I1970
sV\u76df
I1971
sV\u6ce3
I1972
sV\u6b62
I1973
sV\u85e9
I1486
sV\u58eb
I1975
sV\u7070
I1501
sV\u7372
I1978
sV\u5674
I1979
sV\u6df9
I1980
sV\u66ff
I1981
sV\u7901
I1982
sV\u5e84
I1983
sV\u5207
I1984
sV\u5186
I1985
sV\u8a8c
I1986
sV\u8e0f
I1987
sV\u6392
I1988
sV\u4fef
I1989
sV\u5996
I1578
sV\u7d19
I1991
sV\u7c98
I1992
sV\u68a0
I1993
sV\u4ea4
I1994
sV\u6170
I1995
sV\u5e2f
I1996
sV\u6349
I1847
sV\u73b2
I1628
sV\u6cb8
I1644
sV\u8fba
I2000
sV\u633d
I2001
sV\u62bc
I2002
sV\u5bc2
I2003
sV\u9ec4
I2004
sV\u7247
I1671
sV\u51c6
I2006
sV\u90a3
I2007
sV\u4e4f
I2008
sV\u305b
I2009
sV\u4ee4
I2010
sV\u586b
I540
sV\u5dee
I2012
sV\u5171
I2013
sV\u5473
I2014
sV\u53f2
I2015
sV\u76f4
I2016
sV\u8155
I2526
sV\u4ffa
I2018
sV\u7881
I2019
sV\u7387
I2020
sV\u9006
I2021
sV\u898b
I2022
sV\u8a8d
I2023
sV\u60aa
I2607
sV\u6212
I2024
sV\u5b97
I958
sV\u7d18
I2026
sV\u565b
I2530
sV\u8da3
I2028
sV\u63a7
I2029
sV\u7b2c
I2030
sV\u30b1
I2031
sV\u5409
I2067
sV\u6cb9
I2033
sV\u82bd
I1885
sV\u643e
I2036
sV\u78c1
I1890
sV\u7940
I2038
sV\u7a42
I2039
sV\u3046
I2040
sV\u54c9
I2041
sV\u69cb
I2042
sV\u6b4c
I2043
sV\u6c4e
I2044
sV\u60d1
I2045
sV\u8150
I2046
sV\u6f0f
I2070
sV\u7965
I2048
sV\u51db
I2049
sV\u52dd
I2050
sV\u8cbb
I2051
sV\u57df
I2052
sV\u745e
I2053
sV\u4ee5
I2054
sV\u6f64
I2055
sV\u59eb
I2056
sV\u9aed
I2057
sV\u5272
I1998
sV\u9774
I2060
sV\u6876
I2061
sV\u6d78
I2062
sV\u67ff
I2063
sV\u9801
I2064
sV\u5f84
I2065
sV\u3086
I2066
sV\u7409
I2032
sV\u690b
I2035
sV\u968a
I2069
sV\u4f0f
I2047
sV\u8513
I2071
sV\u5bee
I2534
sV\u521d
I2072
sV\u771f
I2073
sV\u6821
I2074
sV\u6fa4
I2075
sV\u60a6
I411
sV\u8429
I2077
sV\u592b
I2078
sV\u9031
I2079
sV\u7533
I2080
sV\u571f
I2081
sV\u68b6
I2082
sV\u9175
I2537
sV\u4eba
I2084
sV\u505c
I2477
sV\u30f4
I2538
sV\u5841
I2085
sV\u79c0
I2086
sV\u5e45
I2087
sV\u5347
I2088
sV\u30c6
I2089
sV\u5449
I2090
sV\u76ca
I2091
sV\u4f4f
I2092
sV\u61d0
I2093
sV\u62d2
I2094
sV\u7686
I2591
sV\u67d4
I2095
sV\u5b57
I2096
sV\u8af8
I2539
sV\u614e
I1640
sV\u725d
I2098
sV\u7fa4
I2099
sV\u8861
I2100
sV\u6fe4
I2101
sV\u6469
I2102
sV\u65e8
I2103
sV\u90a6
I2104
sV\u3071
I2106
sV\u7573
I2107
sV\u92f2
I1008
sV\u9675
I2109
sV\u307f
I2110
sV\u8b77
I2111
sV\u677f
I2112
sV\u7a00
I2113
sV\u5e83
I2114
sV\u5c04
I2115
sV\u3087
I2116
sV\u9306
I2117
sV\u4f0e
I2118
sV\u6210
I2119
sV\u5897
I2121
sV\u7058
I2122
sV\u529b
I2123
sV\u7d1a
I2124
sV\u771e
I1330
sV\u8587
I2126
sV\u6628
I2127
sV\u982c
I2128
sV\u5230
I2129
sV\u5132
I2130
sV\u7434
I2131
sV\u4e38
I2132
sV\u7a40
I2133
sV\u5ec3
I2134
sV\u30c7
I2135
sV\u8acb
I2136
sV\u884c
I2137
sV\u4f4e
I2139
sV\u5c39
I2140
sV\u7b56
I2141
sV\u5fd9
I2142
sV\u9a0e
I2143
sV\u91dd
I2144
sV\u905c
I653
sV\u4f01
I1852
sV\u975e
I2146
sV\u4ee3
I2147
sV\u6962
I2491
sV\u60e7
I2148
sV\u8d66
I2149
sV\u786c
I2150
sV\u5cef
I2151
sV\u7f6e
I2152
sV\u53f1
I2153
sV\u5270
I2154
sV\u56f3
I2155
sV\u677e
I2156
sV\u5e03
I2157
sV\u5982
I2158
sV\u7d05
I2159
sV\u3007
I2160
sV\u7709
I2161
sV\u9688
I2162
sV\u6a0b
I2163
sV\u690d
I2164
sV\u6c0f
I2165
sV\u6311
I2166
sV\u6613
I2167
sV\u8494
I2168
sV\u721b
I2169
sV\u7d9a
I2170
sV\u541f
I2171
sV\u6b21
I2172
sV\u8aa0
I2173
sV\u6d25
I2174
sV\u6027
I2175
sV\u5fae
I2176
sV\u623b
I2177
sV\u3045
I2178
sV\u906e
I1723
sV\u9b41
I2180
sV\u3047
I60
sV\u6a4b
I2182
sV\u8fce
I2183
sV\u62d0
I2184
sV\u8210
I2327
sV\u5857
I2185
sV\u9bd6
I1770
sV\u925b
I103
sV\u7dda
I2188
sV\u30dc
I2189
sV\u8cbc
I1830
sV\u7a6b
I2190
sV\u85ea
I2191
sV\u796d
I2192
sV\u5c6f
I2193
sV\u5371
I2194
sV\u9673
I2195
sV\u6328
I2554
sV\u8ef8
I2197
sV\u7a81
I2198
sV\u5802
I185
sV\u7d04
I2200
sV\u9187
I2201
sV\u7206
I192
sV\u6b8b
I2203
sV\u540a
I2204
sV\u4e0e
I2205
sV\u6291
I2206
sV\u6012
I2207
sV\u5f18
I2208
sV\u5c1a
I2209
sV\u6b20
I2210
sV\u8fa3
I2211
sV\u6e07
I2212
sV\u61a7
I2213
sV\u6226
I2214
sV\u6728
I2215
sV\u7e2e
I2216
sV\u52b1
I2217
sV\u77b3
I2218
sV\u9032
I2219
sV\u8f38
I280
sV\u63bb
I2221
sV\u5ac1
I2222
sV\u5fc3
I2223
sV\u7d44
I2224
sV\u91c7
I2225
sV\u544a
I2226
sV\u82d1
I2227
sV\u67d3
I2228
sV\u6052
I2229
sV\u9ed9
I2230
sV\u618e
I2231
sV\u30dd
I2232
sV\u4fe3
I2233
sV\u6ce5
I2234
sV\u8d64
I2235
sV\u8266
I2236
sV\u7def
I2237
sV\u5370
I2238
sV\u97f3
I389
sV\u3072
I2240
sV\u6c7a
I2241
sV\u80fd
I2242
sV\u5a01
I2243
sV\u5609
I2244
sV\u6211
I2245
sV\u8594
I2246
sV\u731b
I2247
sV\u901d
I2248
sV\u919c
I2249
sV\u751f
I2250
sV\u6a21
I2251
sV\u75c7
I2564
sV\u82a6
I2253
sV\u8f1d
I2254
sV\u982d
I2255
sV\u59ac
I498
sV\u7d2f
I2257
sV\u4e9c
I2258
sV\u52f2
I2108
sV\u7435
I2260
sV\u9999
I2297
sV\u4e39
I2261
sV\u653f
I2262
sV\u7bc0
I2263
sV\u904a
I2568
sV\u5c45
I2265
sV\u9662
I448
sV\u63d0
I2266
sV\u57a2
I2267
sV\u5fd8
I2268
sV\u935b
I2269
sV\u305d
I2270
sV\u91dc
I2271
sV\u56de
I2272
sV\u6167
I2273
sV\u82e6
I2274
sV\u6669
I2275
sV\u5b6b
I2276
sV\u80da
I2277
sV\u9271
I2278
sV\u53f0
I2279
sV\u30f2
I2280
sV\u75f4
I652
sV\u58a8
I2282
sV\u4ff8
I657
sV\u837b
I659
sV\u81fc
I2285
sV\u66fe
I2286
sV\u5883
I2287
sV\u5f62
I1015
sV\u5b85
I2288
sV\u7687
I2289
sV\u5506
I2290
sV\u98ef
I2497
sV\u4f8d
I2291
sV\u690e
I2293
sV\u6591
I2294
sV\u9e97
I705
sV\u5d16
I2296
sV\u5999
I707
sV\u9818
I2298
sV\u961c
I2299
sV\u529f
I2300
sV\u6f22
I2301
sV\u61a9
I2302
sV\u7aaf
I2303
sV\u592e
I2304
sV\u70b3
I756
sV\u9732
I2306
sV\u9234
I2307
sV\u7802
I2308
sV\u6838
I2309
sV\u6b3a
I2310
sV\u663c
I2311
sV\u5c40
I2312
sV\u5bc5
I2313
sV\u96c7
I2314
sV\u5546
I2315
sV\u3048
I2316
sV\u534a
I2317
sV\u8acf
I2318
sV\u90b8
I282
sV\u9858
I2320
sV\u9b5a
I2321
sV\u52df
I2323
sV\u7c3f
I2324
sV\u6de1
I833
sV\u6c60
I2326
sV\u6566
I1028
sV\u6068
I2328
sV\u6df3
I2329
sV\u7aef
I2330
sV\u596e
I2331
sV\u30f3
I2332
sV\u9803
I2333
sV\u7897
I2334
sV\u7109
I2335
sV\u3088
I2336
sV\u4e8c
I2337
sV\u698e
I2338
sV\u541b
I2339
sV\u5b9a
I2340
sV\u969c
I2341
sV\u8ca0
I2342
sV\u8aa4
I2343
sV\u6627
I2344
sV\u85a6
I2345
sV\u63aa
I2346
sV\u5a2f
I2347
sV\u5531
I993
sV\u7949
I1679
sV\u52b4
I2350
sV\u7b97
I2025
sV\u971e
I2125
sV\u673d
I2352
sV\u623f
I2353
sV\u61be
I2354
sV\u9b45
I2355
sV\u9ac4
I2356
sV\u5149
I2357
sV\u70c8
I1036
sV\u73ca
I393
sV\u4f4d
I2360
sV\u8ecc
I2361
sV\u6551
I2362
sS'S'
I2
sV\u6355
I2363
sV\u82d4
I2364
sV\u745b
I2365
sV\u725f
I2366
sV\u8ce0
I2367
sV\u8863
I2368
sV\u65e6
I2369
sV\u60e8
I2370
sV\u3073
I2371
sV\u5375
I1123
sV\u88f8
I2373
sV\u3065
I2374
sV\u627f
I2375
sV\u7d00
I2376
sV\u5983
I2377
sV\u5e02
I2378
sV\u7406
I2379
sV\u7089
I1169
sV\u520a
I2381
sV\u8e8d
I2382
sV\u72d9
I1881
sV\u6295
I2383
sV\u5f97
I2384
sV\u5c16
I2385
sV\u5805
I2588
sV\u7a1a
I2387
sV\u971c
I2388
sV\u539f
I2389
sV\u5984
I2589
sV\u6ca1
I1209
sV\u80a9
I1219
sV\u822a
I2395
sV\u5ead
I2396
sV\u6d32
I427
sV\u9632
I2398
sV\u8a3a
I2399
sV\u708a
I2592
sV\u5446
I2401
sV\u30c9
I2402
sV\u5148
I2403
sV\u524a
I2404
sV\u8ecd
I2405
sV\u9063
I2406
sV\u81d3
I2407
sV\u5fd7
I2408
sV\u75db
I2409
sV\u5a5a
I1307
sV\u305e
I2411
sV\u6ce1
I2412
sV\u89e3
I2413
sV\u6168
I2414
sV\u5deb
I2415
sV\u7570
I2416
sV\u5374
I2417
sV\u8ff7
I2418
sV\u85fb
I2419
sV\u66fd
I2420
sV\u5c01
I2421
sV\u9903
I2422
sV\u9707
I2423
sV\u5009
I2424
sV\u6d0b
I2425
sV\u4e0d
I2426
sV\u6590
I2427
sV\u731f
I2428
sV\u309e
I2429
sV\u6ea2
I2430
sV\u81a8
I2431
sV\u7d2b
I2432
sV\u5e2d
I2433
sV\u55b0
I2434
sV\u7235
I2435
sV\u6839
I2436
sV\u653b
I2437
sV\u633f
I2438
sV\u4e21
I2603
sV\u7bc4
I1499
sV\u5747
I2441
sV\u5049
I1506
sV\u91c8
I2443
sV\u8ca2
I2604
sV\u6255
I2445
sV\u5f57
I2446
sV\u7cd6
I2447
sV\u79d8
I2448
sV\u30de
I2449
sV\u8c61
I2450
sV\u63fa
I1691
sV\u64e6
I2452
sV\u6069
I2453
sV\u81e8
I2454
sV\u7e6d
I2455
sV\u58ee
I2456
sV\u96f2
I1589
sV\u5275
I2458
sV\u5f81
I2459
sV\u7a83
I2460
sV\u90aa
I2461
sV\u7985
I2462
sV\u7389
I2463
sV\u5208
I2464
sV\u4e8b
I2465
sV\u8b0e
I2466
sV\u7c97
I2467
sV\u5b99
I2468
sV\u5a18
I2469
sV\u969b
I2470
sV\u591a
I2471
sV\u559d
I2472
sV\u4fa1
I2473
sV\u51dd
I2474
sV\u5eab
I2475
sV\u7dad
I2476
sV\u305c
I2145
sV\u84b2
I1729
sV\u8cb7
I2479
sV\u65bd
I2480
sV\u558b
I2481
sV\u7d42
I2482
sV\u99c5
I2483
sV\u7248
I2484
sV\u6ecb
I384
sV\u6eb6
I2634
sV\u88cf
I2487
sV\u67d1
I2488
sV\u8650
I2489
sV\u62d3
I2490
sV\u96db
I1334
sV\u30df
I2493
sV\u6fe1
I1785
sV\u50e7
I2495
sV\u83e9
I2496
sV\u78ef
I1844
sV\u9670
I2498
sV\u3074
I1831
sV\uff01
I1149
sV\u9905
I2501
sV\u9786
I2502
sV\u6e0b
I1868
sV\u518a
I274
sV\u8c8c
I1876
sV\u6115
I2505
sV\u6094
I2506
sV\u501f
I1905
sV\u8a23
I2509
sV\u7e2b
I1926
sV\u96c6
I2619
sV\u5cac
I2512
sV\u9bae
I1944
sV\u95b2
I2281
sV\u30b4
I2515
sV\u6c37
I1958
sV\u4fb6
I2394
sV\u8b39
I2517
sV\u853d
I2518
sV\u84bc
I2519
sV\u30ca
I2621
sV\u4e4b
I2521
sV\u6ccc
I2522
sV\u6bce
I2523
sV\u6751
I2524
sV\u6253
I2525
sV\u6155
I2017
sV\u9c57
I2527
sV\u9e78
I2528
sV\u9ad8
I2529
sV\u965b
I2027
sV\u305f
I2531
sV\u8a63
I2532
sV\u81ea
I2533
sV\u307c
I855
sV\u9771
I2535
sV\u96f0
I2076
sV\u5175
I2083
sV\u75b2
I2514
sV\u3055
I2322
sV\u9320
I2540
sV\u9177
I2541
sV\u5e81
I2542
sV\u5c02
I2120
sV\u5606
I2544
sV\u5289
I2545
sV\u4f8b
I2546
sV\u898f
I2547
sV\u8a0e
I2548
sV\u6691
I2549
sV\u5e16
I2550
sV\u719f
I2551
sV\u4ea1
I2552
sV\u6f20
I2553
sV\u9b54
I2637
sV\u7d30
I1702
sV\u8328
I2196
sV\u602a
I2555
sV\u7d2c
I2556
sV\u7a2e
I2557
sV\u5730
I2558
sV\u53b3
I2559
sV\u30b5
I1070
sV\u56f0
I2536
sV\u8ab9
I2561
sV\u81bf
I2562
sV\u5944
I2563
sV\u95c7
I2252
sV\u52c9
I2566
sV\u5348
I2567
sV\u304a
I2264
sV\u6750
I1331
sV\u83d3
I2570
sV\u6ce2
I2626
sV\u5b58
I2572
sV\u77db
I2573
sV\u585a
I2574
sV\u755c
I1055
sV\u723a
I2576
sV\u65e7
I2577
sV\u6666
I2578
sV\u6368
I2579
sV\u5feb
I2580
sV\u9d6c
I2581
sV\u53f3
I2582
sV\u90f5
I2583
sV\u6df7
I2584
sV\u67fb
I2585
sV\u7e01
I2586
sV\u5f80
I2587
sV\u9805
I2386
sV\u7984
I2390
sV\u5507
I2590
sV\u9686
I1516
sV\u308a
I2400
sV\u6d8c
I2593
sV\u6790
I2594
sV\u5642
I2595
sV\u8015
I2596
sV\u7d17
I2597
sV\u4e80
I1855
sV\u5b98
I2599
sV\u75ab
I2600
sV\u559c
I2601
sV\u511f
I2602
sV\u6e21
I2439
sV\u6ca2
I2444
sV\u66a6
I2605
sV\u63a8
I2606
sV\u80aa
I2292
sV\u7aae
I2608
sV\u5631
I2609
sV\u77b0
I2610
sV\u54b2
I2611
sV\u7948
I2612
sV\u6a39
I2613
sV\u3075
I2631
sV\u843d
I2615
sV\u7e41
I2616
sV\u8b21
I2617
sV\u99c4
I2508
sV\u76c6
I2511
sV\u53c8
I2620
sV\u90ca
I2520
sV\u67d0
I2622
sS'U'
I1
sV\u304e
I2623
sV\u55dc
I2624
sV\u6b63
I2625
sV\u8ce2
I2571
sV\u5d50
I2627
sV\u5f6b
I2628
sV\u5373
I2629
sV\u54f2
I2630
sV\u5075
I2614
sV\u8d77
I2618
sV\u4ef6
I2633
sV\u68fa
I1137
sV\u817f
I2636
sV\u5b54
I1259
s(dp4
I0
S'E'
sI1
S'U'
sI2
S'S'
sI3
V\u6483
sI4
V\u8302
sI5
V\u8a87
sI6
V\u308b
sI7
V\u4f0a
sI8
V\u968f
sI9
V\u9810
sI10
V\u6297
sI11
V\u6599
sI12
V\u6d1e
sI13
V\u9020
sI14
V\u822c
sI15
V\u4f5c
sI16
V\u6cb3
sI17
V\u6b32
sI18
V\u4fb5
sI19
V\u7136
sI20
V\u75b9
sI21
V\u5438
sI22
V\u585e
sI23
V\u7a3c
sI24
V\u8ac7
sI25
V\u30cb
sI26
V\u53cd
sI27
V\u79d1
sI28
V\u90e1
sI29
V\u7b52
sI30
V\u7e54
sI31
V\u62d7
sI32
V\u6458
sI33
V\u8edf
sI34
V\u51e1
sI35
V\u3060
sI36
V\u7dba
sI37
V\u77e5
sI38
V\u9664
sI39
V\u7de9
sI40
V\u7f6a
sI41
V\u8870
sI42
V\u6cf3
sI43
V\u8b72
sI44
V\u4ff5
sI45
V\u8e74
sI46
V\u7968
sI47
V\u6101
sI48
V\u8986
sI49
V\u6c88
sI50
V\u500b
sI51
V\u758e
sI52
V\u8599
sI53
V\u7b92
sI54
V\u5f15
sI55
V\u8217
sI56
V\u679a
sI57
V\u8b1d
sI58
V\u6cc4
sI59
V\u7121
sI60
V\u3047
sI61
V\u5d29
sI62
V\u5faa
sI63
V\u662f
sI64
V\u85ae
sI65
V\u68b0
sI66
V\u5237
sI67
V\u983b
sI68
V\u66f0
sI69
V\u7dbe
sI70
V\u304b
sI71
V\u4fca
sI72
V\u5951
sI73
V\u78d0
sI74
V\u5bd2
sI75
V\u5178
sI76
V\u6559
sI77
V\u885b
sI78
V\u67da
sI79
V\u7dfb
sI80
V\u4e5f
sI81
V\u30e0
sI82
V\u76e4
sI83
V\u79e6
sI84
V\u5d69
sI85
V\u62ec
sI86
V\u666f
sI87
V\u5f7c
sI88
V\u4f75
sI89
V\u6ef4
sI90
V\u51f6
sI91
V\u57fa
sI92
V\u9e7f
sI93
V\u5dfe
sI94
V\u8d08
sI95
V\u4e0a
sI96
V\u540e
sI97
V\u7891
sI98
V\u9a12
sI99
V\u5e95
sI100
V\u5f14
sI101
V\u6016
sI102
V\u8499
sI103
V\u925b
sI104
V\u5384
sI105
V\u30a1
sI106
V\u95a3
sI107
V\u7826
sI108
V\u5ca9
sI109
V\u9d28
sI110
V\u67af
sI111
V\u68b1
sI112
V\u8db3
sI113
V\u4f34
sI114
V\u5036
sI115
V\u5538
sI116
V\u59bb
sI117
V\u9b3c
sI118
V\u5c3e
sI119
V\u8846
sI120
V\u6cc9
sI121
V\u6e4a
sI122
V\u7950
sI123
V\u8056
sI124
V\u865a
sI125
V\u8b5c
sI126
V\u30e1
sI127
V\u55e3
sI128
V\u773a
sI129
V\u5be7
sI130
V\u9ce9
sI131
V\u62ed
sI132
V\u8df3
sI133
V\u8a72
sI134
V\u53f7
sI135
V\u3076
sI136
V\u79fb
sI137
V\u967a
sI138
V\u8a6b
sI139
V\u8001
sI140
V\u6e7e
sI141
V\u6d88
sI142
V\u8e8a
sI143
V\u920d
sI144
V\u938c
sI145
V\u570f
sI146
V\u9811
sI147
V\u5a92
sI148
V\u8096
sI149
V\u8c9e
sI150
V\u51a0
sI151
V\u7523
sI152
V\u64ae
sI153
V\u8ab2
sI154
V\u30b6
sI155
V\u5439
sI156
V\u7a3d
sI157
V\u7cbe
sI158
V\u67c4
sI159
V\u73cd
sI160
V\u514b
sI161
V\u4eca
sI162
V\u524d
sI163
V\u53cc
sI164
V\u99d0
sI165
V\u5e55
sI166
V\u7fd4
sI167
V\u6357
sI168
V\u6f5f
sI169
V\u8cde
sI170
V\u3061
sI171
V\u6cbc
sI172
V\u52e2
sI173
V\u9665
sI174
V\u7de8
sI175
V\u816b
sI176
V\u676f
sI177
V\u84ee
sI178
V\u30f6
sI179
V\u56fa
sI180
V\u8102
sI181
V\u82d7
sI182
V\u6e08
sI183
V\u518d
sI184
V\u9e93
sI185
V\u5802
sI186
V\u96a3
sI187
V\u95a5
sI188
V\u78a7
sI189
V\u7b26
sI190
V\u5fa9
sI191
V\u62ab
sI192
V\u7206
sI193
V\u6c34
sI194
V\u50b7
sI195
V\u7336
sI196
V\u753a
sI197
V\u983c
sI198
V\u5f3e
sI199
V\u6240
sI200
V\u65c5
sI201
V\u9060
sI202
V\u51cd
sI203
V\u304c
sI204
V\u685c
sI205
V\u93e1
sI206
V\u96e3
sI207
V\u9162
sI208
V\u5b66
sI209
V\u81ed
sI210
V\u8a70
sI211
V\u8972
sI212
V\u8df5
sI213
V\u90f7
sI214
V\u57f9
sI215
V\u9678
sI216
V\u6301
sI217
V\u6280
sI218
V\u6182
sI219
V\u6b86
sI220
V\u8f09
sI221
V\u4e88
sI222
V\u8d8a
sI223
V\u308c
sI224
V\u7b11
sI225
V\u8017
sI226
V\u8f9e
sI227
V\u5321
sI228
V\u52a0
sI229
V\u54a4
sI230
V\u8ab0
sI231
V\u8cb4
sI232
V\u5589
sI233
V\u5c3f
sI234
V\u6643
sI235
V\u6545
sI236
V\u84c4
sI237
V\u514d
sI238
V\u30cc
sI239
V\u57ce
sI240
V\u7b51
sI241
V\u99d2
sI242
V\u90ce
sI243
V\u88dc
sI244
V\u6c5f
sI245
V\u9663
sI246
V\u7565
sI247
V\u9867
sI248
V\u5f69
sI249
V\u646f
sI250
V\u4e73
sI251
V\u3077
sI252
V\u53f6
sI253
V\u76f8
sI254
V\u75fa
sI255
V\u597d
sI256
V\u98fc
sI257
V\u8987
sI258
V\u4e89
sI259
V\u738b
sI260
V\u308d
sI261
V\u5f93
sI262
V\u7d14
sI263
V\u689d
sI264
V\u691c
sI265
V\u5320
sI266
V\u57a3
sI267
V\u9022
sI268
V\u83ab
sI269
V\u51b7
sI270
V\u5236
sI271
V\u793c
sI272
V\u7dbf
sI273
V\u7e3e
sI274
V\u518a
sI275
V\u53cb
sI276
V\u8c4a
sI277
V\u30cd
sI278
V\u914c
sI279
V\u5b50
sI280
V\u8f38
sI281
V\u6bdb
sI282
V\u90b8
sI283
V\u5360
sI284
V\u3062
sI285
V\u5a66
sI286
V\u666e
sI287
V\u8b70
sI288
V\u4ff3
sI289
V\u6d74
sI290
V\u98fd
sI291
V\u5e7e
sI292
V\u8584
sI293
V\u8907
sI294
V\u4e09
sI295
V\u500d
sI296
V\u4fc3
sI297
V\u968e
sI298
V\u9f13
sI299
V\u8b1b
sI300
V\u30a2
sI301
V\u95a4
sI302
V\u5927
sI303
V\u632b
sI304
V\u652f
sI305
V\u66ae
sI306
V\u8a31
sI307
V\u72b6
sI308
V\u934b
sI309
V\u6cca
sI310
V\u304d
sI311
V\u91cc
sI312
V\u554f
sI313
V\u5f53
sI314
V\u5c55
sI315
V\u885d
sI316
V\u6ede
sI317
V\u73e0
sI318
V\u7763
sI319
V\u30e2
sI320
V\u770b
sI321
V\u606d
sI322
V\u8a71
sI323
V\u4f73
sI324
V\u68f2
sI325
V\u5177
sI326
V\u54fa
sI327
V\u8702
sI328
V\u8e87
sI329
V\u6e09
sI330
V\u7b95
sI331
V\u7a14
sI332
V\u6697
sI333
V\u4f9d
sI334
V\u5420
sI335
V\u30a3
sI336
V\u8c5a
sI337
V\u5224
sI338
V\u5ea7
sI339
V\u82af
sI340
V\u6bb5
sI341
V\u8a34
sI342
V\u9038
sI343
V\u533a
sI344
V\u7fbd
sI345
V\u7aaa
sI346
V\u793e
sI347
V\u80c3
sI348
V\u83c5
sI349
V\u6848
sI350
V\u564c
sI351
V\u914e
sI352
V\u7dd1
sI353
V\u8cdb
sI354
V\u4fdd
sI355
V\u7460
sI356
V\u30e3
sI357
V\u9762
sI358
V\u53e5
sI359
V\u5264
sI360
V\u7d66
sI361
V\u79e9
sI362
V\u616e
sI363
V\u6df1
sI364
V\u6c70
sI365
V\u96f7
sI366
V\u51f9
sI367
V\u9078
sI368
V\u7cfb
sI369
V\u5e7c
sI370
V\u7aff
sI371
V\u8003
sI372
V\u8305
sI373
V\u4e07
sI374
V\u6b8a
sI375
V\u5c90
sI376
V\u9813
sI377
V\u5f92
sI378
V\u8098
sI379
V\u4f1d
sI380
V\u6e9c
sI381
V\u8a1f
sI382
V\u9023
sI383
V\u611a
sI384
V\u6ecb
sI385
V\u5929
sI386
V\u98a8
sI387
V\u7baa
sI388
V\u672d
sI389
V\u97f3
sI390
V\u622f
sI391
V\u8cb0
sI392
V\u8fb2
sI393
V\u73ca
sI394
V\u55b6
sI395
V\u30b8
sI396
V\u5c3b
sI397
V\u904b
sI398
V\u7a3f
sI399
V\u96cc
sI400
V\u91ce
sI401
V\u7fd2
sI402
V\u63da
sI403
V\u6a5f
sI404
V\u3063
sI405
V\u77e2
sI406
V\u52e4
sI407
V\u5de6
sI408
V\u78e8
sI409
V\u676d
sI410
V\u826f
sI411
V\u60a6
sI412
V\u6cf0
sI413
V\u5a7f
sI414
V\u958b
sI415
V\u8a0a
sI416
V\u770c
sI417
V\u842c
sI418
V\u7d10
sI419
V\u5993
sI420
V\u6797
sI421
V\u6d9b
sI422
V\u6e9d
sI423
V\u9928
sI424
V\u85ab
sI425
V\u672c
sI426
V\u89b3
sI427
V\u6d32
sI428
V\u7436
sI429
V\u30b9
sI430
V\u7dbb
sI431
V\u523a
sI432
V\u5bbf
sI433
V\u5834
sI434
V\u64c1
sI435
V\u6642
sI436
V\u62c5
sI437
V\u8c46
sI438
V\u904e
sI439
V\u7d50
sI440
V\u59d3
sI441
V\u7b54
sI442
V\u862d
sI443
V\u6edd
sI444
V\u6f5c
sI445
V\u54e1
sI446
V\u7560
sI447
V\u91e3
sI448
V\u9662
sI449
V\u5968
sI450
V\u83ef
sI451
V\u8d70
sI452
V\u7092
sI453
V\u6b74
sI454
V\u57f7
sI455
V\u9178
sI456
V\u5dfb
sI457
V\u6b3e
sI458
V\u706b
sI459
V\u5bff
sI460
V\u587e
sI461
V\u8247
sI462
V\u9640
sI463
V\u760d
sI464
V\u708e
sI465
V\u5c11
sI466
V\u6717
sI467
V\u5225
sI468
V\u59a8
sI469
V\u662d
sI470
V\u632f
sI471
V\u9bc9
sI472
V\u306e
sI473
V\u6bb4
sI474
V\u91b8
sI475
V\u5e3d
sI476
V\u4f47
sI477
V\u964d
sI478
V\u30ce
sI479
V\u9ed2
sI480
V\u30cf
sI481
V\u4e5d
sI482
V\u96e2
sI483
V\u5265
sI484
V\u53e4
sI485
V\u5869
sI486
V\u9aea
sI487
V\u4ef2
sI488
V\u74f6
sI489
V\u3079
sI490
V\u51f8
sI491
V\u5e7d
sI492
V\u7ffc
sI493
V\u98fe
sI494
V\u6f06
sI495
V\u8a08
sI496
V\u540c
sI497
V\u308f
sI498
V\u59ac
sI499
V\u7a93
sI500
V\u7814
sI501
V\u8218
sI502
V\u4e9b
sI503
V\u811a
sI504
V\u52a3
sI505
V\u51a5
sI506
V\u5024
sI507
V\u7ca7
sI508
V\u5f26
sI509
V\u9a28
sI510
V\u66ab
sI511
V\u592a
sI512
V\u65ad
sI513
V\u642c
sI514
V\u80af
sI515
V\u8fb1
sI516
V\u80b2
sI517
V\u88df
sI518
V\u5238
sI519
V\u9ebb
sI520
V\u5c3c
sI521
V\u8e0a
sI522
V\u8cc7
sI523
V\u4f46
sI524
V\u694a
sI525
V\u50cf
sI526
V\u9854
sI527
V\u6756
sI528
V\u8ddd
sI529
V\u68df
sI530
V\u71e5
sI531
V\u3064
sI532
V\u7ce7
sI533
V\u5f66
sI534
V\u5be9
sI535
V\u596a
sI536
V\u65ed
sI537
V\u846c
sI538
V\u636e
sI539
V\u6ff1
sI540
V\u586b
sI541
V\u5efb
sI542
V\u8f14
sI543
V\u8105
sI544
V\u4f86
sI545
V\u698a
sI546
V\u548c
sI547
V\u900f
sI548
V\u9a13
sI549
V\u5915
sI550
V\u6319
sI551
V\u6298
sI552
V\u6e1b
sI553
V\u819a
sI554
V\u96a0
sI555
V\u95a2
sI556
V\u30a4
sI557
V\u9aa8
sI558
V\u852d
sI559
V\u602f
sI560
V\u8a33
sI561
V\u6db2
sI562
V\u5339
sI563
V\u304f
sI564
V\u53ce
sI565
V\u7dd2
sI566
V\u8457
sI567
V\u62d8
sI568
V\u8cdc
sI569
V\u7761
sI570
V\u56e0
sI571
V\u5263
sI572
V\u75e2
sI573
V\u5165
sI574
V\u30e4
sI575
V\u866b
sI576
V\u59ea
sI577
V\u856d
sI578
V\u64ec
sI579
V\u606f
sI580
V\u63ee
sI581
V\u4ef0
sI582
V\u8a73
sI583
V\u6975
sI584
V\u5e7b
sI585
V\u51fa
sI586
V\u5bfe
sI587
V\u6681
sI588
V\u6700
sI589
V\u6383
sI590
V\u8a89
sI591
V\u578b
sI592
V\u6597
sI593
V\u8f9b
sI594
V\u8c9d
sI595
V\u9084
sI596
V\u7720
sI597
V\u7422
sI598
V\u30a5
sI599
V\u7e26
sI600
V\u582a
sI601
V\u64ad
sI602
V\u52b9
sI603
V\u63c3
sI604
V\u6442
sI605
V\u60c5
sI606
V\u57cb
sI607
V\u754c
sI608
V\u91cf
sI609
V\u5de8
sI610
V\u5954
sI611
V\u65d7
sI612
V\u62d9
sI613
V\u8358
sI614
V\u6d5c
sI615
V\u8a5e
sI616
V\u53e3
sI617
V\u30e5
sI618
V\u5de7
sI619
V\u656c
sI620
V\u626e
sI621
V\u6f70
sI622
V\u6c72
sI623
V\u8fbf
sI624
V\u9676
sI625
V\u5378
sI626
V\u7ffb
sI627
V\u307a
sI628
V\u59ff
sI629
V\u90c1
sI630
V\u8005
sI631
V\u4e86
sI632
V\u907c
sI633
V\u570b
sI634
V\u540d
sI635
V\u5f90
sI636
V\u7c92
sI637
V\u7815
sI638
V\u6696
sI639
V\u6398
sI640
V\u8a9e
sI641
V\u91a4
sI642
V\u9ea6
sI643
V\u672b
sI644
V\u642d
sI645
V\u85ac
sI646
V\u8fb0
sI647
V\u8b33
sI648
V\u7537
sI649
V\u9f3b
sI650
V\u30ba
sI651
V\u5c3d
sI652
V\u75f4
sI653
V\u905c
sI654
V\u9855
sI655
V\u59d4
sI656
V\u6557
sI657
V\u4ff8
sI658
V\u60da
sI659
V\u837b
sI660
V\u895f
sI661
V\u7363
sI662
V\u5065
sI663
V\u307d
sI664
V\u65ec
sI665
V\u4e71
sI666
V\u8ff0
sI667
V\u6b73
sI668
V\u9577
sI669
V\u96f6
sI670
V\u7279
sI671
V\u53f8
sI672
V\u8981
sI673
V\u8106
sI674
V\u6589
sI675
V\u5e8f
sI676
V\u5d0e
sI677
V\u5191
sI678
V\u9010
sI679
V\u5614
sI680
V\u6d99
sI681
V\u809b
sI682
V\u4f1a
sI683
V\u5b22
sI684
V\u7126
sI685
V\u88ab
sI686
V\u30bb
sI687
V\u76bf
sI688
V\u553e
sI689
V\u8840
sI690
V\u8cc3
sI691
V\u8fc5
sI692
V\u91d1
sI693
V\u3050
sI694
V\u5352
sI695
V\u9591
sI696
V\u52e7
sI697
V\u5410
sI698
V\u75e9
sI699
V\u5468
sI700
V\u576a
sI701
V\u6d6e
sI702
V\u67f5
sI703
V\u6674
sI704
V\u9df9
sI705
V\u9e97
sI706
V\u72ed
sI707
V\u5999
sI708
V\u9694
sI709
V\u8a17
sI710
V\u8996
sI711
V\u629c
sI712
V\u661f
sI713
V\u9921
sI714
V\u5ba2
sI715
V\u5f25
sI716
V\u8aac
sI717
V\u6e2f
sI718
V\u8131
sI719
V\u63b2
sI720
V\u66b4
sI721
V\u7d39
sI722
V\u5cb8
sI723
V\u963f
sI724
V\u75be
sI725
V\u6247
sI726
V\u81c6
sI727
V\u5076
sI728
V\u5acc
sI729
V\u30d0
sI730
V\u504f
sI731
V\u59fb
sI732
V\u767a
sI733
V\u7267
sI734
V\u51e6
sI735
V\u54e8
sI736
V\u6e6f
sI737
V\u66f4
sI738
V\u7d79
sI739
V\u7cf8
sI740
V\u307b
sI741
V\u92fc
sI742
V\u6881
sI743
V\u8a02
sI744
V\u8896
sI745
V\u5b0c
sI746
V\u5c0e
sI747
V\u5091
sI748
V\u9593
sI749
V\u6816
sI750
V\u6c99
sI751
V\u829d
sI752
V\u93a7
sI753
V\u7528
sI754
V\u962a
sI755
V\u8aad
sI756
V\u70b3
sI757
V\u6734
sI758
V\u543e
sI759
V\u88c1
sI760
V\u7b87
sI761
V\u6ec5
sI762
V\u8f44
sI763
V\u79cb
sI764
V\u30d1
sI765
V\u5150
sI766
V\u62dd
sI767
V\u635c
sI768
V\u5de3
sI769
V\u3066
sI770
V\u8aed
sI771
V\u6fef
sI772
V\u8170
sI773
V\u8272
sI774
V\u97ff
sI775
V\u9f62
sI776
V\u6e05
sI777
V\u6f84
sI778
V\u6307
sI779
V\u868a
sI780
V\u5b8c
sI781
V\u5f0f
sI782
V\u84ec
sI783
V\u9190
sI784
V\u706f
sI785
V\u8b17
sI786
V\u5598
sI787
V\u611b
sI788
V\u671f
sI789
V\u66c7
sI790
V\u30a6
sI791
V\u8a2d
sI792
V\u4f2f
sI793
V\u5f1f
sI794
V\u9c39
sI795
V\u9eba
sI796
V\u723d
sI797
V\u6841
sI798
V\u4e45
sI799
V\u80c6
sI800
V\u8449
sI801
V\u7a4d
sI802
V\u5bcc
sI803
V\u3051
sI804
V\u5553
sI805
V\u6dd8
sI806
V\u83dc
sI807
V\u675f
sI808
V\u30e6
sI809
V\u96ea
sI810
V\u67f4
sI811
V\u5efa
sI812
V\u727d
sI813
V\u62b1
sI814
V\u8a00
sI815
V\u8d85
sI816
V\u9700
sI817
V\u567a
sI818
V\u6897
sI819
V\u4e18
sI820
V\u819d
sI821
V\u601c
sI822
V\u7ba1
sI823
V\u5a20
sI824
V\u5922
sI825
V\u30a7
sI826
V\u9326
sI827
V\u4e32
sI828
V\u5e06
sI829
V\u8caf
sI830
V\u5fb9
sI831
V\u5e38
sI832
V\u7d3a
sI833
V\u6de1
sI834
V\u60c7
sI835
V\u7acb
sI836
V\u984c
sI837
V\u9152
sI838
V\u75d5
sI839
V\u6e58
sI840
V\u62db
sI841
V\u620e
sI842
V\u5be1
sI843
V\u5ee3
sI844
V\u5962
sI845
V\u5de5
sI846
V\u5c64
sI847
V\u30e7
sI848
V\u5668
sI849
V\u756a
sI850
V\u6f6e
sI851
V\u83f1
sI852
V\u66f3
sI853
V\u5e78
sI854
V\u51fd
sI855
V\u307c
sI856
V\u6a80
sI857
V\u4e03
sI858
V\u6982
sI859
V\u8d05
sI860
V\u6709
sI861
V\u7a0b
sI862
V\u5c0f
sI863
V\u7f8e
sI864
V\u5192
sI865
V\u6817
sI866
V\u6b96
sI867
V\u821b
sI868
V\u4f9b
sI869
V\u7027
sI870
V\u7729
sI871
V\u6a2b
sI872
V\u55aa
sI873
V\u4fae
sI874
V\u61b2
sI875
V\u8535
sI876
V\u9837
sI877
V\u5bb6
sI878
V\u523b
sI879
V\u5dba
sI880
V\u30bc
sI881
V\u4e43
sI882
V\u8eca
sI883
V\u6d45
sI884
V\u8cc4
sI885
V\u6749
sI886
V\u58cc
sI887
V\u5351
sI888
V\u8857
sI889
V\u4f59
sI890
V\u4ed8
sI891
V\u60dc
sI892
V\u7ae0
sI893
V\u5e63
sI894
V\u3067
sI895
V\u9769
sI896
V\u96e8
sI897
V\u814e
sI898
V\u6e26
sI899
V\u696d
sI900
V\u4fee
sI901
V\u61f2
sI902
V\u6575
sI903
V\u5f79
sI904
V\u7e55
sI905
V\u9dfa
sI906
V\u30fc
sI907
V\u8b00
sI908
V\u6708
sI909
V\u5b8b
sI910
V\u990c
sI911
V\u9d8f
sI912
V\u5012
sI913
V\u8997
sI914
V\u639b
sI915
V\u809d
sI916
V\u7b20
sI917
V\u8607
sI918
V\u5728
sI919
V\u6daf
sI920
V\u82b1
sI921
V\u8f5f
sI922
V\u9eb9
sI923
V\u53bb
sI924
V\u5c3a
sI925
V\u30bd
sI926
V\u713c
sI927
V\u9061
sI928
V\u6fc3
sI929
V\u6842
sI930
V\u6d44
sI931
V\u61c7
sI932
V\u7dcf
sI933
V\u97d3
sI934
V\u3052
sI935
V\u4ed9
sI936
V\u6f58
sI937
V\u63db
sI938
V\u6c5a
sI939
V\u9ce5
sI940
V\u91e7
sI941
V\u546a
sI942
V\u8def
sI943
V\u82f1
sI944
V\u67f3
sI945
V\u6574
sI946
V\u7a76
sI947
V\u90fd
sI948
V\u517c
sI949
V\u767e
sI950
V\u8f03
sI951
V\u8107
sI952
V\u5211
sI953
V\u3092
sI954
V\u601d
sI955
V\u819c
sI956
V\u5629
sI957
V\u4eae
sI958
V\u5b97
sI959
V\u60b2
sI960
V\u533b
sI961
V\u4f43
sI962
V\u88c2
sI963
V\u7b4b
sI964
V\u984d
sI965
V\u30d2
sI966
V\u75d4
sI967
V\u8ad6
sI968
V\u4e59
sI969
V\u7be0
sI970
V\u98e2
sI971
V\u5c65
sI972
V\u7167
sI973
V\u4eee
sI974
V\u6271
sI975
V\u8475
sI976
V\u7977
sI977
V\u7af6
sI978
V\u5e79
sI979
V\u707d
sI980
V\u757f
sI981
V\u76fe
sI982
V\u6f02
sI983
V\u6687
sI984
V\u7c8b
sI985
V\u9f8d
sI986
V\u5e0c
sI987
V\u790e
sI988
V\u7591
sI989
V\u52d9
sI990
V\u3093
sI991
V\u5712
sI992
V\u679d
sI993
V\u5531
sI994
V\u8cab
sI995
V\u732a
sI996
V\u6e2c
sI997
V\u6234
sI998
V\u5eb7
sI999
V\u4e08
sI1000
V\u59b9
sI1001
V\u9838
sI1002
V\u6bc5
sI1003
V\u86c7
sI1004
V\u61c9
sI1005
V\u918d
sI1006
V\u5fcd
sI1007
V\u5e4c
sI1008
V\u92f2
sI1009
V\u30d3
sI1010
V\u9752
sI1011
V\u8b5a
sI1012
V\u865c
sI1013
V\u5de1
sI1014
V\u7c60
sI1015
V\u5f62
sI1016
V\u76e7
sI1017
V\u3068
sI1018
V\u8fed
sI1019
V\u60f3
sI1020
V\u8912
sI1021
V\u5ef7
sI1022
V\u7d76
sI1023
V\u52ff
sI1024
V\u6803
sI1025
V\u6607
sI1026
V\u6109
sI1027
V\u5c0b
sI1028
V\u6566
sI1029
V\u671d
sI1030
V\u821f
sI1031
V\u7d21
sI1032
V\u5f70
sI1033
V\u30a8
sI1034
V\u4eac
sI1035
V\u8033
sI1036
V\u70c8
sI1037
V\u96bc
sI1038
V\u71be
sI1039
V\u6d41
sI1040
V\u8cc0
sI1041
V\u6843
sI1042
V\u4fc2
sI1043
V\u5c4b
sI1044
V\u83ca
sI1045
V\u7a4f
sI1046
V\u7551
sI1047
V\u3053
sI1048
V\u5451
sI1049
V\u4e57
sI1050
V\u845b
sI1051
V\u66dc
sI1052
V\u7d61
sI1053
V\u5ce0
sI1054
V\u907a
sI1055
V\u755c
sI1056
V\u7169
sI1057
V\u90e8
sI1058
V\u53ea
sI1059
V\u9053
sI1060
V\u7fa9
sI1061
V\u99ff
sI1062
V\u5bfa
sI1063
V\u6b04
sI1064
V\u8089
sI1065
V\u8108
sI1066
V\u5d8b
sI1067
V\uff0c
sI1068
V\u5b8f
sI1069
V\u5510
sI1070
V\u30b5
sI1071
V\u871c
sI1072
V\u5ca1
sI1073
V\u7d20
sI1074
V\u5426
sI1075
V\u30a9
sI1076
V\u722a
sI1077
V\u4ead
sI1078
V\u6f2c
sI1079
V\u81b3
sI1080
V\u62b5
sI1081
V\u773c
sI1082
V\u6cc1
sI1083
V\u30b7
sI1084
V\u7652
sI1085
V\u52d5
sI1086
V\u5354
sI1087
V\u4fd7
sI1088
V\u675c
sI1089
V\u805e
sI1090
V\u5ce1
sI1091
V\u7ae5
sI1092
V\u5b64
sI1093
V\u30e9
sI1094
V\u5168
sI1095
V\u6deb
sI1096
V\u6570
sI1097
V\u81f3
sI1098
V\u6cbf
sI1099
V\u30e8
sI1100
V\u5815
sI1101
V\u7a7a
sI1102
V\u56fd
sI1103
V\u307e
sI1104
V\u7d0b
sI1105
V\u628a
sI1106
V\u5f8c
sI1107
V\u5411
sI1108
V\u6c96
sI1109
V\u55c5
sI1110
V\u679c
sI1111
V\u631f
sI1112
V\u7c21
sI1113
V\u5ba4
sI1114
V\u5727
sI1115
V\u51a8
sI1116
V\u52aa
sI1117
V\u4e2d
sI1118
V\u65b0
sI1119
V\u8133
sI1120
V\u8235
sI1121
V\u63b4
sI1122
V\u5f37
sI1123
V\u5375
sI1124
V\u753b
sI1125
V\u533f
sI1126
V\u50be
sI1127
V\u6c41
sI1128
V\u6dc0
sI1129
V\u97a0
sI1130
V\u91cd
sI1131
V\u7e4d
sI1132
V\u5fcc
sI1133
V\u9451
sI1134
V\u69d8
sI1135
V\u80de
sI1136
V\u7de0
sI1137
V\u68fa
sI1138
V\u7be4
sI1139
V\u74e6
sI1140
V\u9069
sI1141
V\u5ea6
sI1142
V\u6b6f
sI1143
V\u68ee
sI1144
V\u8471
sI1145
V\u66f2
sI1146
V\u63f4
sI1147
V\u5f77
sI1148
V\u5cf6
sI1149
V\uff01
sI1150
V\u767d
sI1151
V\u57fc
sI1152
V\u4e00
sI1153
V\u6804
sI1154
V\u8389
sI1155
V\u8208
sI1156
V\u810a
sI1157
V\u65ac
sI1158
V\u9014
sI1159
V\u8a18
sI1160
V\u609f
sI1161
V\u5fa1
sI1162
V\u7d22
sI1163
V\u59a5
sI1164
V\u5824
sI1165
V\u74a7
sI1166
V\u73a9
sI1167
V\u8eab
sI1168
V\u512a
sI1169
V\u7089
sI1170
V\u82b3
sI1171
V\u7f36
sI1172
V\u5bb9
sI1173
V\u96bb
sI1174
V\u793a
sI1175
V\u30bf
sI1176
V\u99b4
sI1177
V\u6fc1
sI1178
V\u63c9
sI1179
V\u76e3
sI1180
V\u9650
sI1181
V\u3054
sI1182
V\u6a58
sI1183
V\u70ba
sI1184
V\u70cf
sI1185
V\u5766
sI1186
V\u53e9
sI1187
V\u6b66
sI1188
V\u6dbc
sI1189
V\u67f1
sI1190
V\u62f3
sI1191
V\u8074
sI1192
V\u96fb
sI1193
V\u547c
sI1194
V\u6f01
sI1195
V\u6e80
sI1196
V\u6905
sI1197
V\u7d0d
sI1198
V\u9b8e
sI1199
V\u6c17
sI1200
V\u8b19
sI1201
V\u8a98
sI1202
V\u899a
sI1203
V\u8cac
sI1204
V\u6731
sI1205
V\u80b4
sI1206
V\u7b39
sI1207
V\u6df5
sI1208
V\u963b
sI1209
V\u6ca1
sI1210
V\u68c4
sI1211
V\u8349
sI1212
V\u7e4b
sI1213
V\u30d4
sI1214
V\u6c57
sI1215
V\u805f
sI1216
V\u5965
sI1217
V\u51ea
sI1218
V\u6771
sI1219
V\u80a9
sI1220
V\u80f4
sI1221
V\u767b
sI1222
V\u907f
sI1223
V\u73fe
sI1224
V\u8b83
sI1225
V\u6885
sI1226
V\u6587
sI1227
V\u6606
sI1228
V\u5f8b
sI1229
V\u66d6
sI1230
V\u798f
sI1231
V\u7a0e
sI1232
V\u4e16
sI1233
V\u821e
sI1234
V\u9f20
sI1235
V\u5ba3
sI1236
V\u50da
sI1237
V\u55a7
sI1238
V\u52a9
sI1239
V\u583a
sI1240
V\u4ec1
sI1241
V\u6c42
sI1242
V\u88c5
sI1243
V\u62c9
sI1244
V\u7d4c
sI1245
V\u96d1
sI1246
V\u50d5
sI1247
V\u9154
sI1248
V\u6e56
sI1249
V\u8b58
sI1250
V\u72e9
sI1251
V\u8feb
sI1252
V\u306a
sI1253
V\u8ced
sI1254
V\u5df7
sI1255
V\u9be8
sI1256
V\u7af9
sI1257
V\u97fb
sI1258
V\u4e01
sI1259
V\u5b54
sI1260
V\u6388
sI1261
V\u590f
sI1262
V\u6d17
sI1263
V\u6e96
sI1264
V\u6a19
sI1265
V\u671b
sI1266
V\u659c
sI1267
V\u611f
sI1268
V\u629e
sI1269
V\u5229
sI1270
V\u53a8
sI1271
V\u6f2b
sI1272
V\u30aa
sI1273
V\u64b2
sI1274
V\u6148
sI1275
V\u7bb8
sI1276
V\u78ba
sI1277
V\u6fc0
sI1278
V\u72a0
sI1279
V\u6249
sI1280
V\u9f4b
sI1281
V\u7c4d
sI1282
V\u594f
sI1283
V\u5353
sI1284
V\u9055
sI1285
V\u4ed6
sI1286
V\u68da
sI1287
V\u5e61
sI1288
V\u5b63
sI1289
V\u7269
sI1290
V\u30ea
sI1291
V\u507d
sI1292
V\u8aee
sI1293
V\u6075
sI1294
V\u81f4
sI1295
V\u5ef6
sI1296
V\u5bf8
sI1297
V\u547d
sI1298
V\u52fe
sI1299
V\u9000
sI1300
V\u5302
sI1301
V\u5f0a
sI1302
V\u820c
sI1303
V\u30ac
sI1304
V\u9418
sI1305
V\u5b9d
sI1306
V\u6020
sI1307
V\u5a5a
sI1308
V\u30ab
sI1309
V\u8f2a
sI1310
V\u722c
sI1311
V\u5830
sI1312
V\u5cb3
sI1313
V\u65b9
sI1314
V\u673a
sI1315
V\u8a3c
sI1316
V\u6d3e
sI1317
V\u5c48
sI1318
V\u854e
sI1319
V\u6850
sI1320
V\u8cd3
sI1321
V\u98db
sI1322
V\u5bdd
sI1323
V\u7d5e
sI1324
V\u30eb
sI1325
V\u73ed
sI1326
V\u9cf3
sI1327
V\u5ff5
sI1328
V\u5e74
sI1329
V\u6176
sI1330
V\u771e
sI1331
V\u6750
sI1332
V\u3080
sI1333
V\u7403
sI1334
V\u96db
sI1335
V\u7684
sI1336
V\u7f8a
sI1337
V\u658e
sI1338
V\u4e94
sI1339
V\u5217
sI1340
V\u60a0
sI1341
V\u63a2
sI1342
V\u6d29
sI1343
V\u8ca8
sI1344
V\u502b
sI1345
V\u72ac
sI1346
V\u5931
sI1347
V\u5f35
sI1348
V\u8237
sI1349
V\u61b6
sI1350
V\u6539
sI1351
V\u84b8
sI1352
V\u6b3d
sI1353
V\u30c0
sI1354
V\u53c2
sI1355
V\u96c4
sI1356
V\u99c6
sI1357
V\u914d
sI1358
V\u604b
sI1359
V\u6bd2
sI1360
V\u4f55
sI1361
V\u4ed4
sI1362
V\u7559
sI1363
V\u5b5d
sI1364
V\u7adc
sI1365
V\u5dde
sI1366
V\u6765
sI1367
V\u89e6
sI1368
V\u6d69
sI1369
V\u6ce8
sI1370
V\u306b
sI1371
V\u72ec
sI1372
V\u58f0
sI1373
V\u7c73
sI1374
V\u79d2
sI1375
V\u7f75
sI1376
V\u6e7f
sI1377
V\u3081
sI1378
V\u5100
sI1379
V\u9685
sI1380
V\u5b87
sI1381
V\u9806
sI1382
V\u7c89
sI1383
V\u9bad
sI1384
V\u8910
sI1385
V\u4e95
sI1386
V\u6f14
sI1387
V\u5016
sI1388
V\u7518
sI1389
V\u80a1
sI1390
V\u8ca9
sI1391
V\u92ad
sI1392
V\u932c
sI1393
V\u7a32
sI1394
V\u5eb5
sI1395
V\u4fbf
sI1396
V\u30c1
sI1397
V\u96c5
sI1398
V\u7bc7
sI1399
V\u7e4a
sI1400
V\u62cd
sI1401
V\u67cf
sI1402
V\u4ed5
sI1403
V\u6f54
sI1404
V\u53d7
sI1405
V\u3056
sI1406
V\u5c5e
sI1407
V\u80e1
sI1408
V\u92ed
sI1409
V\u77ef
sI1410
V\u5df3
sI1411
V\u69fb
sI1412
V\u667a
sI1413
V\u9001
sI1414
V\u9784
sI1415
V\u5c09
sI1416
V\u5e8a
sI1417
V\u638c
sI1418
V\u6e15
sI1419
V\u5317
sI1420
V\u88fe
sI1421
V\u5b9c
sI1422
V\uff1f
sI1423
V\u81a0
sI1424
V\u6625
sI1425
V\u6b27
sI1426
V\u5831
sI1427
V\u7d33
sI1428
V\u5fb4
sI1429
V\u6a3d
sI1430
V\u8f3f
sI1431
V\u3041
sI1432
V\u72c2
sI1433
V\u9077
sI1434
V\u614b
sI1435
V\u5eca
sI1436
V\u624d
sI1437
V\u83cc
sI1438
V\u674f
sI1439
V\u6851
sI1440
V\u8fd4
sI1441
V\u5357
sI1442
V\u30d6
sI1443
V\u95d8
sI1444
V\u56da
sI1445
V\u8061
sI1446
V\u6563
sI1447
V\u9727
sI1448
V\u516b
sI1449
V\u53ec
sI1450
V\u79f0
sI1451
V\u8377
sI1452
V\u4f7f
sI1453
V\u5200
sI1454
V\u5404
sI1455
V\u828b
sI1456
V\u6912
sI1457
V\u5316
sI1458
V\u5618
sI1459
V\u5a9b
sI1460
V\u751a
sI1461
V\u5949
sI1462
V\u7c9f
sI1463
V\u63a1
sI1464
V\u52ab
sI1465
V\u6d2a
sI1466
V\u702c
sI1467
V\u7bb1
sI1468
V\u9a30
sI1469
V\u8336
sI1470
V\u683c
sI1471
V\u8cbf
sI1472
V\u75c5
sI1473
V\u58c7
sI1474
V\u7b46
sI1475
V\u508d
sI1476
V\u7a92
sI1477
V\u674e
sI1478
V\u8a50
sI1479
V\u30d7
sI1480
V\u63e1
sI1481
V\u6162
sI1482
V\u65e5
sI1483
V\u8b66
sI1484
V\u6d6a
sI1485
V\u306c
sI1486
V\u85e9
sI1487
V\u733f
sI1488
V\u87f9
sI1489
V\u6afb
sI1490
V\u30be
sI1491
V\u69fd
sI1492
V\u5d14
sI1493
V\u9280
sI1494
V\u808c
sI1495
V\u6e13
sI1496
V\u9396
sI1497
V\u559a
sI1498
V\u589c
sI1499
V\u7bc4
sI1500
V\u64a4
sI1501
V\u7070
sI1502
V\u8f29
sI1503
V\u912d
sI1504
V\u50ac
sI1505
V\u9b31
sI1506
V\u5049
sI1507
V\u5e33
sI1508
V\u7e1e
sI1509
V\u5341
sI1510
V\u5bc6
sI1511
V\u624b
sI1512
V\u7dca
sI1513
V\u80cc
sI1514
V\u7fcc
sI1515
V\u89d2
sI1516
V\u9686
sI1517
V\u3057
sI1518
V\u53d6
sI1519
V\u9759
sI1520
V\u795d
sI1521
V\u62e0
sI1522
V\u6867
sI1523
V\u516d
sI1524
V\u30ec
sI1525
V\u5e73
sI1526
V\u7d75
sI1527
V\u9cf4
sI1528
V\u8077
sI1529
V\u66f8
sI1530
V\u65fa
sI1531
V\u697d
sI1532
V\u3002
sI1533
V\u5504
sI1534
V\u70ad
sI1535
V\u5c0a
sI1536
V\u660e
sI1537
V\u5197
sI1538
V\u9699
sI1539
V\u5b9b
sI1540
V\u591c
sI1541
V\u64a5
sI1542
V\u89a7
sI1543
V\u30ad
sI1544
V\u5854
sI1545
V\u5fb3
sI1546
V\u7832
sI1547
V\u8236
sI1548
V\u6bbb
sI1549
V\u643a
sI1550
V\u6e3e
sI1551
V\u57c3
sI1552
V\u3042
sI1553
V\u5a46
sI1554
V\u7236
sI1555
V\u614c
sI1556
V\u65cf
sI1557
V\u864e
sI1558
V\u6cd5
sI1559
V\u71d7
sI1560
V\u5256
sI1561
V\u5bdb
sI1562
V\u745a
sI1563
V\u62e1
sI1564
V\u8a66
sI1565
V\u525b
sI1566
V\u53eb
sI1567
V\u8c6a
sI1568
V\u30ed
sI1569
V\u516c
sI1570
V\u3069
sI1571
V\u8276
sI1572
V\u66f9
sI1573
V\u88fd
sI1574
V\u697c
sI1575
V\u4e7e
sI1576
V\u3082
sI1577
V\u5584
sI1578
V\u5996
sI1579
V\u9042
sI1580
V\u7b1b
sI1581
V\u80a2
sI1582
V\u6e29
sI1583
V\u732b
sI1584
V\u9262
sI1585
V\u51ac
sI1586
V\u552f
sI1587
V\u76ae
sI1588
V\u5bb0
sI1589
V\u96f2
sI1590
V\u9db4
sI1591
V\u683d
sI1592
V\u5c4a
sI1593
V\u7f77
sI1594
V\u5947
sI1595
V\u50cd
sI1596
V\u7cca
sI1597
V\u654f
sI1598
V\u714c
sI1599
V\u4f53
sI1600
V\u68d2
sI1601
V\u785d
sI1602
V\u59dc
sI1603
V\u85e4
sI1604
V\u7b50
sI1605
V\u967d
sI1606
V\u8cea
sI1607
V\u306d
sI1608
V\u76ee
sI1609
V\u58f2
sI1610
V\u7df4
sI1611
V\u62f6
sI1612
V\u8679
sI1613
V\u6b7b
sI1614
V\u3083
sI1615
V\u9808
sI1616
V\u878d
sI1617
V\u660c
sI1618
V\u5199
sI1619
V\u7c9b
sI1620
V\u9bdb
sI1621
V\u7a9f
sI1622
V\u60a3
sI1623
V\u63a5
sI1624
V\u77ad
sI1625
V\u72af
sI1626
V\u7db1
sI1627
V\u58b3
sI1628
V\u73b2
sI1629
V\u5bb5
sI1630
V\u6cbb
sI1631
V\u4e3c
sI1632
V\u8abf
sI1633
V\u30c3
sI1634
V\u5742
sI1635
V\u9244
sI1636
V\u7d46
sI1637
V\u59c9
sI1638
V\u84cb
sI1639
V\u906d
sI1640
V\u614e
sI1641
V\u6dd1
sI1642
V\u6c50
sI1643
V\u76d7
sI1644
V\u6cb8
sI1645
V\u3058
sI1646
V\u535a
sI1647
V\u795e
sI1648
V\u60e3
sI1649
V\u6d66
sI1650
V\u8868
sI1651
V\u6b6a
sI1652
V\u77ed
sI1653
V\u766c
sI1654
V\u716e
sI1655
V\u5df1
sI1656
V\u7f72
sI1657
V\u7a74
sI1658
V\u8ffd
sI1659
V\u9003
sI1660
V\u5782
sI1661
V\u5305
sI1662
V\u5909
sI1663
V\u90ed
sI1664
V\u670d
sI1665
V\u916c
sI1666
V\u6813
sI1667
V\u7119
sI1668
V\u5098
sI1669
V\u539a
sI1670
V\u5e9c
sI1671
V\u7247
sI1672
V\u68a8
sI1673
V\u542b
sI1674
V\u572d
sI1675
V\u8d74
sI1676
V\u54c0
sI1677
V\u3043
sI1678
V\u7345
sI1679
V\u7949
sI1680
V\u6276
sI1681
V\u8853
sI1682
V\u7159
sI1683
V\u30d8
sI1684
V\u6e67
sI1685
V\u526f
sI1686
V\u7d71
sI1687
V\u5cf0
sI1688
V\u5b75
sI1689
V\u8179
sI1690
V\u80f8
sI1691
V\u63fa
sI1692
V\u4eab
sI1693
V\u9285
sI1694
V\u5c06
sI1695
V\u8a95
sI1696
V\u5099
sI1697
V\u5b9f
sI1698
V\u82a5
sI1699
V\u55ab
sI1700
V\u6a2a
sI1701
V\u902e
sI1702
V\u7d30
sI1703
V\u99b3
sI1704
V\u4f3c
sI1705
V\u6bbf
sI1706
V\u54c1
sI1707
V\u71c3
sI1708
V\u7642
sI1709
V\u7344
sI1710
V\u5948
sI1711
V\u65cb
sI1712
V\u86cd
sI1713
V\u63cf
sI1714
V\u8cd1
sI1715
V\u30d9
sI1716
V\u5bdf
sI1717
V\u985e
sI1718
V\u81e3
sI1719
V\u82e5
sI1720
V\u59d1
sI1721
V\u5f13
sI1722
V\u53ef
sI1723
V\u906e
sI1724
V\u5e72
sI1725
V\u60f9
sI1726
V\u8178
sI1727
V\u6dfb
sI1728
V\u8efd
sI1729
V\u84b2
sI1730
V\u9580
sI1731
V\u7384
sI1732
V\u6c11
sI1733
V\u4e92
sI1734
V\u5019
sI1735
V\u7d1b
sI1736
V\u929a
sI1737
V\u5e1d
sI1738
V\u77ac
sI1739
V\u932f
sI1740
V\u30ae
sI1741
V\u5c31
sI1742
V\u5bb4
sI1743
V\u8737
sI1744
V\u6d3b
sI1745
V\u8fbc
sI1746
V\u5143
sI1747
V\u80ce
sI1748
V\u6953
sI1749
V\u8ed2
sI1750
V\u8a55
sI1751
V\u6bd4
sI1752
V\u3059
sI1753
V\u91d8
sI1754
V\u5fdc
sI1755
V\u6163
sI1756
V\u907d
sI1757
V\u72fc
sI1758
V\u5c71
sI1759
V\u5973
sI1760
V\u61f8
sI1761
V\u82fa
sI1762
V\u9054
sI1763
V\u9283
sI1764
V\u8caa
sI1765
V\u5185
sI1766
V\u6900
sI1767
V\u5b89
sI1768
V\u990a
sI1769
V\u840c
sI1770
V\u9bd6
sI1771
V\u830e
sI1772
V\u8a93
sI1773
V\u6d12
sI1774
V\u711a
sI1775
V\u56db
sI1776
V\u6620
sI1777
V\u8ca7
sI1778
V\u9ab8
sI1779
V\u30af
sI1780
V\u732e
sI1781
V\u5e30
sI1782
V\u7834
sI1783
V\u6238
sI1784
V\u7db4
sI1785
V\u6fe1
sI1786
V\u52c3
sI1787
V\u3044
sI1788
V\u7bc9
sI1789
V\u86cb
sI1790
V\u85cd
sI1791
V\u8fd1
sI1792
V\u7d62
sI1793
V\u9756
sI1794
V\u515a
sI1795
V\u5ddd
sI1796
V\u98df
sI1797
V\u6562
sI1798
V\u81e5
sI1799
V\u7766
sI1800
V\u30ef
sI1801
V\u936e
sI1802
V\u7e70
sI1803
V\u8776
sI1804
V\u4efb
sI1805
V\u817a
sI1806
V\u7701
sI1807
V\u5203
sI1808
V\u916a
sI1809
V\u3084
sI1810
V\u5b09
sI1811
V\u598a
sI1812
V\u4f11
sI1813
V\u6e90
sI1814
V\u8a13
sI1815
V\u30c2
sI1816
V\u56e3
sI1817
V\u9298
sI1818
V\u7e1b
sI1819
V\u7947
sI1820
V\u7f9e
sI1821
V\u89aa
sI1822
V\u54ac
sI1823
V\u93ae
sI1824
V\u5f31
sI1825
V\u7db2
sI1826
V\u67b6
sI1827
V\u8339
sI1828
V\u82b8
sI1829
V\u4e3b
sI1830
V\u8cbc
sI1831
V\u3074
sI1832
V\u96c0
sI1833
V\u5243
sI1834
V\u8cca
sI1835
V\u5145
sI1836
V\u30c4
sI1837
V\u7b49
sI1838
V\u904d
sI1839
V\u664b
sI1840
V\u4f51
sI1841
V\u6955
sI1842
V\u52d8
sI1843
V\u6761
sI1844
V\u78ef
sI1845
V\u65e2
sI1846
V\u6b69
sI1847
V\u6349
sI1848
V\u306f
sI1849
V\u5f71
sI1850
V\u9df2
sI1851
V\u8cfc
sI1852
V\u4f01
sI1853
V\u3085
sI1854
V\u5104
sI1855
V\u4e80
sI1856
V\u818f
sI1857
V\u820e
sI1858
V\u4e91
sI1859
V\u4f10
sI1860
V\u901a
sI1861
V\u80a5
sI1862
V\u4e26
sI1863
V\u682a
sI1864
V\u5bb3
sI1865
V\u62b9
sI1866
V\u8338
sI1867
V\u8fbb
sI1868
V\u6e0b
sI1869
V\u56c1
sI1870
V\u7740
sI1871
V\u5442
sI1872
V\u50c5
sI1873
V\u5144
sI1874
V\u584a
sI1875
V\u64cd
sI1876
V\u8c8c
sI1877
V\u6ed1
sI1878
V\u4f50
sI1879
V\u88d5
sI1880
V\u7656
sI1881
V\u72d9
sI1882
V\u5358
sI1883
V\u305a
sI1884
V\u9d5c
sI1885
V\u82bd
sI1886
V\u8ae6
sI1887
V\u7f70
sI1888
V\u5974
sI1889
V\u6676
sI1890
V\u78c1
sI1891
V\u3005
sI1892
V\u5d07
sI1893
V\u5b88
sI1894
V\u670b
sI1895
V\u640d
sI1896
V\u610f
sI1897
V\u4e11
sI1898
V\u5398
sI1899
V\u67a0
sI1900
V\u6025
sI1901
V\u61a4
sI1902
V\u6a29
sI1903
V\u98f2
sI1904
V\u5835
sI1905
V\u501f
sI1906
V\u8239
sI1907
V\u80ba
sI1908
V\u59cb
sI1909
V\u693f
sI1910
V\u7262
sI1911
V\u5343
sI1912
V\u9045
sI1913
V\u51c4
sI1914
V\u874b
sI1915
V\u58ca
sI1916
V\u6b53
sI1917
V\u7259
sI1918
V\u30da
sI1919
V\u50d1
sI1920
V\u6065
sI1921
V\u8a69
sI1922
V\u5875
sI1923
V\u6577
sI1924
V\u6279
sI1925
V\u6c7d
sI1926
V\u7e2b
sI1927
V\u897f
sI1928
V\u8afe
sI1929
V\u7981
sI1930
V\u5800
sI1931
V\u5f85
sI1932
V\u7e04
sI1933
V\u5287
sI1934
V\u9589
sI1935
V\u5408
sI1936
V\u888b
sI1937
V\u970a
sI1938
V\u6191
sI1939
V\u8010
sI1940
V\u6795
sI1941
V\u6614
sI1942
V\u5916
sI1943
V\u7d99
sI1944
V\u9bae
sI1945
V\u806f
sI1946
V\u85a9
sI1947
V\u672a
sI1948
V\u71b1
sI1949
V\u54b3
sI1950
V\u9332
sI1951
V\u6c38
sI1952
V\u4f3a
sI1953
V\u653e
sI1954
V\u79c1
sI1955
V\u5840
sI1956
V\u9b42
sI1957
V\u5fc5
sI1958
V\u6c37
sI1959
V\u52c7
sI1960
V\u5146
sI1961
V\u3090
sI1962
V\u5448
sI1963
V\u68cb
sI1964
V\u574a
sI1965
V\u6bcd
sI1966
V\u4ecf
sI1967
V\u6050
sI1968
V\u8352
sI1969
V\u7956
sI1970
V\u30db
sI1971
V\u76df
sI1972
V\u6ce3
sI1973
V\u6b62
sI1974
V\u65e9
sI1975
V\u58eb
sI1976
V\u5893
sI1977
V\u3070
sI1978
V\u7372
sI1979
V\u5674
sI1980
V\u6df9
sI1981
V\u66ff
sI1982
V\u7901
sI1983
V\u5e84
sI1984
V\u5207
sI1985
V\u5186
sI1986
V\u8a8c
sI1987
V\u8e0f
sI1988
V\u6392
sI1989
V\u4fef
sI1990
V\u9996
sI1991
V\u7d19
sI1992
V\u7c98
sI1993
V\u68a0
sI1994
V\u4ea4
sI1995
V\u6170
sI1996
V\u5e2f
sI1997
V\u30b0
sI1998
V\u5272
sI1999
V\u8cb8
sI2000
V\u8fba
sI2001
V\u633d
sI2002
V\u62bc
sI2003
V\u5bc2
sI2004
V\u9ec4
sI2005
V\u5247
sI2006
V\u51c6
sI2007
V\u90a3
sI2008
V\u4e4f
sI2009
V\u305b
sI2010
V\u4ee4
sI2011
V\u786b
sI2012
V\u5dee
sI2013
V\u5171
sI2014
V\u5473
sI2015
V\u53f2
sI2016
V\u76f4
sI2017
V\u6155
sI2018
V\u4ffa
sI2019
V\u7881
sI2020
V\u7387
sI2021
V\u9006
sI2022
V\u898b
sI2023
V\u8a8d
sI2024
V\u6212
sI2025
V\u7b97
sI2026
V\u7d18
sI2027
V\u965b
sI2028
V\u8da3
sI2029
V\u63a7
sI2030
V\u7b2c
sI2031
V\u30b1
sI2032
V\u7409
sI2033
V\u6cb9
sI2034
V\u62bd
sI2035
V\u690b
sI2036
V\u643e
sI2037
V\u58c1
sI2038
V\u7940
sI2039
V\u7a42
sI2040
V\u3046
sI2041
V\u54c9
sI2042
V\u69cb
sI2043
V\u6b4c
sI2044
V\u6c4e
sI2045
V\u60d1
sI2046
V\u8150
sI2047
V\u4f0f
sI2048
V\u7965
sI2049
V\u51db
sI2050
V\u52dd
sI2051
V\u8cbb
sI2052
V\u57df
sI2053
V\u745e
sI2054
V\u4ee5
sI2055
V\u6f64
sI2056
V\u59eb
sI2057
V\u9aed
sI2058
V\u76f2
sI2059
V\u7272
sI2060
V\u9774
sI2061
V\u6876
sI2062
V\u6d78
sI2063
V\u67ff
sI2064
V\u9801
sI2065
V\u5f84
sI2066
V\u3086
sI2067
V\u5409
sI2068
V\u7b8b
sI2069
V\u968a
sI2070
V\u6f0f
sI2071
V\u8513
sI2072
V\u521d
sI2073
V\u771f
sI2074
V\u6821
sI2075
V\u6fa4
sI2076
V\u96f0
sI2077
V\u8429
sI2078
V\u592b
sI2079
V\u9031
sI2080
V\u7533
sI2081
V\u571f
sI2082
V\u68b6
sI2083
V\u5175
sI2084
V\u4eba
sI2085
V\u5841
sI2086
V\u79c0
sI2087
V\u5e45
sI2088
V\u5347
sI2089
V\u30c6
sI2090
V\u5449
sI2091
V\u76ca
sI2092
V\u4f4f
sI2093
V\u61d0
sI2094
V\u62d2
sI2095
V\u67d4
sI2096
V\u5b57
sI2097
V\u714e
sI2098
V\u725d
sI2099
V\u7fa4
sI2100
V\u8861
sI2101
V\u6fe4
sI2102
V\u6469
sI2103
V\u65e8
sI2104
V\u90a6
sI2105
V\u7a1c
sI2106
V\u3071
sI2107
V\u7573
sI2108
V\u52f2
sI2109
V\u9675
sI2110
V\u307f
sI2111
V\u8b77
sI2112
V\u677f
sI2113
V\u7a00
sI2114
V\u5e83
sI2115
V\u5c04
sI2116
V\u3087
sI2117
V\u9306
sI2118
V\u4f0e
sI2119
V\u6210
sI2120
V\u5c02
sI2121
V\u5897
sI2122
V\u7058
sI2123
V\u529b
sI2124
V\u7d1a
sI2125
V\u971e
sI2126
V\u8587
sI2127
V\u6628
sI2128
V\u982c
sI2129
V\u5230
sI2130
V\u5132
sI2131
V\u7434
sI2132
V\u4e38
sI2133
V\u7a40
sI2134
V\u5ec3
sI2135
V\u30c7
sI2136
V\u8acb
sI2137
V\u884c
sI2138
V\u7c3e
sI2139
V\u4f4e
sI2140
V\u5c39
sI2141
V\u7b56
sI2142
V\u5fd9
sI2143
V\u9a0e
sI2144
V\u91dd
sI2145
V\u305c
sI2146
V\u975e
sI2147
V\u4ee3
sI2148
V\u60e7
sI2149
V\u8d66
sI2150
V\u786c
sI2151
V\u5cef
sI2152
V\u7f6e
sI2153
V\u53f1
sI2154
V\u5270
sI2155
V\u56f3
sI2156
V\u677e
sI2157
V\u5e03
sI2158
V\u5982
sI2159
V\u7d05
sI2160
V\u3007
sI2161
V\u7709
sI2162
V\u9688
sI2163
V\u6a0b
sI2164
V\u690d
sI2165
V\u6c0f
sI2166
V\u6311
sI2167
V\u6613
sI2168
V\u8494
sI2169
V\u721b
sI2170
V\u7d9a
sI2171
V\u541f
sI2172
V\u6b21
sI2173
V\u8aa0
sI2174
V\u6d25
sI2175
V\u6027
sI2176
V\u5fae
sI2177
V\u623b
sI2178
V\u3045
sI2179
V\u60bc
sI2180
V\u9b41
sI2181
V\u9047
sI2182
V\u6a4b
sI2183
V\u8fce
sI2184
V\u62d0
sI2185
V\u5857
sI2186
V\u3078
sI2187
V\u725b
sI2188
V\u7dda
sI2189
V\u30dc
sI2190
V\u7a6b
sI2191
V\u85ea
sI2192
V\u796d
sI2193
V\u5c6f
sI2194
V\u5371
sI2195
V\u9673
sI2196
V\u8328
sI2197
V\u8ef8
sI2198
V\u7a81
sI2199
V\u9802
sI2200
V\u7d04
sI2201
V\u9187
sI2202
V\u5206
sI2203
V\u6b8b
sI2204
V\u540a
sI2205
V\u4e0e
sI2206
V\u6291
sI2207
V\u6012
sI2208
V\u5f18
sI2209
V\u5c1a
sI2210
V\u6b20
sI2211
V\u8fa3
sI2212
V\u6e07
sI2213
V\u61a7
sI2214
V\u6226
sI2215
V\u6728
sI2216
V\u7e2e
sI2217
V\u52b1
sI2218
V\u77b3
sI2219
V\u9032
sI2220
V\u4f38
sI2221
V\u63bb
sI2222
V\u5ac1
sI2223
V\u5fc3
sI2224
V\u7d44
sI2225
V\u91c7
sI2226
V\u544a
sI2227
V\u82d1
sI2228
V\u67d3
sI2229
V\u6052
sI2230
V\u9ed9
sI2231
V\u618e
sI2232
V\u30dd
sI2233
V\u4fe3
sI2234
V\u6ce5
sI2235
V\u8d64
sI2236
V\u8266
sI2237
V\u7def
sI2238
V\u5370
sI2239
V\u77f3
sI2240
V\u3072
sI2241
V\u6c7a
sI2242
V\u80fd
sI2243
V\u5a01
sI2244
V\u5609
sI2245
V\u6211
sI2246
V\u8594
sI2247
V\u731b
sI2248
V\u901d
sI2249
V\u919c
sI2250
V\u751f
sI2251
V\u6a21
sI2252
V\u95c7
sI2253
V\u82a6
sI2254
V\u8f1d
sI2255
V\u982d
sI2256
V\u99ac
sI2257
V\u7d2f
sI2258
V\u4e9c
sI2259
V\u30b2
sI2260
V\u7435
sI2261
V\u4e39
sI2262
V\u653f
sI2263
V\u7bc0
sI2264
V\u304a
sI2265
V\u5c45
sI2266
V\u63d0
sI2267
V\u57a2
sI2268
V\u5fd8
sI2269
V\u935b
sI2270
V\u305d
sI2271
V\u91dc
sI2272
V\u56de
sI2273
V\u6167
sI2274
V\u82e6
sI2275
V\u6669
sI2276
V\u5b6b
sI2277
V\u80da
sI2278
V\u9271
sI2279
V\u53f0
sI2280
V\u30f2
sI2281
V\u95b2
sI2282
V\u58a8
sI2283
V\u30d5
sI2284
V\u637b
sI2285
V\u81fc
sI2286
V\u66fe
sI2287
V\u5883
sI2288
V\u5b85
sI2289
V\u7687
sI2290
V\u5506
sI2291
V\u4f8d
sI2292
V\u80aa
sI2293
V\u690e
sI2294
V\u6591
sI2295
V\u5e97
sI2296
V\u5d16
sI2297
V\u9999
sI2298
V\u9818
sI2299
V\u961c
sI2300
V\u529f
sI2301
V\u6f22
sI2302
V\u61a9
sI2303
V\u7aaf
sI2304
V\u592e
sI2305
V\u30b3
sI2306
V\u9732
sI2307
V\u9234
sI2308
V\u7802
sI2309
V\u6838
sI2310
V\u6b3a
sI2311
V\u663c
sI2312
V\u5c40
sI2313
V\u5bc5
sI2314
V\u96c7
sI2315
V\u5546
sI2316
V\u3048
sI2317
V\u534a
sI2318
V\u8acf
sI2319
V\u70b8
sI2320
V\u9858
sI2321
V\u9b5a
sI2322
V\u3055
sI2323
V\u52df
sI2324
V\u7c3f
sI2325
V\u8de1
sI2326
V\u6c60
sI2327
V\u8210
sI2328
V\u6068
sI2329
V\u6df3
sI2330
V\u7aef
sI2331
V\u596e
sI2332
V\u30f3
sI2333
V\u9803
sI2334
V\u7897
sI2335
V\u7109
sI2336
V\u3088
sI2337
V\u4e8c
sI2338
V\u698e
sI2339
V\u541b
sI2340
V\u5b9a
sI2341
V\u969c
sI2342
V\u8ca0
sI2343
V\u8aa4
sI2344
V\u6627
sI2345
V\u85a6
sI2346
V\u63aa
sI2347
V\u5a2f
sI2348
V\u7531
sI2349
V\u74b0
sI2350
V\u52b4
sI2351
V\u6bba
sI2352
V\u673d
sI2353
V\u623f
sI2354
V\u61be
sI2355
V\u9b45
sI2356
V\u9ac4
sI2357
V\u5149
sI2358
V\u30c8
sI2359
V\u53ca
sI2360
V\u4f4d
sI2361
V\u8ecc
sI2362
V\u6551
sI2363
V\u6355
sI2364
V\u82d4
sI2365
V\u745b
sI2366
V\u725f
sI2367
V\u8ce0
sI2368
V\u8863
sI2369
V\u65e6
sI2370
V\u60e8
sI2371
V\u3073
sI2372
V\u9375
sI2373
V\u88f8
sI2374
V\u3065
sI2375
V\u627f
sI2376
V\u7d00
sI2377
V\u5983
sI2378
V\u5e02
sI2379
V\u7406
sI2380
V\u3089
sI2381
V\u520a
sI2382
V\u8e8d
sI2383
V\u6295
sI2384
V\u5f97
sI2385
V\u5c16
sI2386
V\u9805
sI2387
V\u7a1a
sI2388
V\u971c
sI2389
V\u539f
sI2390
V\u7984
sI2391
V\u8ca1
sI2392
V\u83b1
sI2393
V\u60a9
sI2394
V\u4fb6
sI2395
V\u822a
sI2396
V\u5ead
sI2397
V\u7530
sI2398
V\u9632
sI2399
V\u8a3a
sI2400
V\u308a
sI2401
V\u5446
sI2402
V\u30c9
sI2403
V\u5148
sI2404
V\u524a
sI2405
V\u8ecd
sI2406
V\u9063
sI2407
V\u81d3
sI2408
V\u5fd7
sI2409
V\u75db
sI2410
V\u9a5a
sI2411
V\u305e
sI2412
V\u6ce1
sI2413
V\u89e3
sI2414
V\u6168
sI2415
V\u5deb
sI2416
V\u7570
sI2417
V\u5374
sI2418
V\u8ff7
sI2419
V\u85fb
sI2420
V\u66fd
sI2421
V\u5c01
sI2422
V\u9903
sI2423
V\u9707
sI2424
V\u5009
sI2425
V\u6d0b
sI2426
V\u4e0d
sI2427
V\u6590
sI2428
V\u731f
sI2429
V\u309e
sI2430
V\u6ea2
sI2431
V\u81a8
sI2432
V\u7d2b
sI2433
V\u5e2d
sI2434
V\u55b0
sI2435
V\u7235
sI2436
V\u6839
sI2437
V\u653b
sI2438
V\u633f
sI2439
V\u6e21
sI2440
V\u5bc4
sI2441
V\u5747
sI2442
V\u3049
sI2443
V\u91c8
sI2444
V\u6ca2
sI2445
V\u6255
sI2446
V\u5f57
sI2447
V\u7cd6
sI2448
V\u79d8
sI2449
V\u30de
sI2450
V\u8c61
sI2451
V\u8ee2
sI2452
V\u64e6
sI2453
V\u6069
sI2454
V\u81e8
sI2455
V\u7e6d
sI2456
V\u58ee
sI2457
V\u56f2
sI2458
V\u5275
sI2459
V\u5f81
sI2460
V\u7a83
sI2461
V\u90aa
sI2462
V\u7985
sI2463
V\u7389
sI2464
V\u5208
sI2465
V\u4e8b
sI2466
V\u8b0e
sI2467
V\u7c97
sI2468
V\u5b99
sI2469
V\u5a18
sI2470
V\u969b
sI2471
V\u591a
sI2472
V\u559d
sI2473
V\u4fa1
sI2474
V\u51dd
sI2475
V\u5eab
sI2476
V\u7dad
sI2477
V\u505c
sI2478
V\u7532
sI2479
V\u8cb7
sI2480
V\u65bd
sI2481
V\u558b
sI2482
V\u7d42
sI2483
V\u99c5
sI2484
V\u7248
sI2485
V\u4ecb
sI2486
V\u5eb6
sI2487
V\u88cf
sI2488
V\u67d1
sI2489
V\u8650
sI2490
V\u62d3
sI2491
V\u6962
sI2492
V\u76db
sI2493
V\u30df
sI2494
V\u4fe1
sI2495
V\u50e7
sI2496
V\u83e9
sI2497
V\u98ef
sI2498
V\u9670
sI2499
V\u5074
sI2500
V\u5f01
sI2501
V\u9905
sI2502
V\u9786
sI2503
V\u4e0b
sI2504
V\u718a
sI2505
V\u6115
sI2506
V\u6094
sI2507
V\u901f
sI2508
V\u99c4
sI2509
V\u8a23
sI2510
V\u5e2b
sI2511
V\u76c6
sI2512
V\u5cac
sI2513
V\u5bae
sI2514
V\u75b2
sI2515
V\u30b4
sI2516
V\u8c37
sI2517
V\u8b39
sI2518
V\u853d
sI2519
V\u84bc
sI2520
V\u90ca
sI2521
V\u4e4b
sI2522
V\u6ccc
sI2523
V\u6bce
sI2524
V\u6751
sI2525
V\u6253
sI2526
V\u8155
sI2527
V\u9c57
sI2528
V\u9e78
sI2529
V\u9ad8
sI2530
V\u565b
sI2531
V\u305f
sI2532
V\u8a63
sI2533
V\u81ea
sI2534
V\u5bee
sI2535
V\u9771
sI2536
V\u56f0
sI2537
V\u9175
sI2538
V\u30f4
sI2539
V\u8af8
sI2540
V\u9320
sI2541
V\u9177
sI2542
V\u5e81
sI2543
V\u8a2a
sI2544
V\u5606
sI2545
V\u5289
sI2546
V\u4f8b
sI2547
V\u898f
sI2548
V\u8a0e
sI2549
V\u6691
sI2550
V\u5e16
sI2551
V\u719f
sI2552
V\u4ea1
sI2553
V\u6f20
sI2554
V\u6328
sI2555
V\u602a
sI2556
V\u7d2c
sI2557
V\u7a2e
sI2558
V\u5730
sI2559
V\u53b3
sI2560
V\u50b5
sI2561
V\u8ab9
sI2562
V\u81bf
sI2563
V\u5944
sI2564
V\u75c7
sI2565
V\u5fe0
sI2566
V\u52c9
sI2567
V\u5348
sI2568
V\u904a
sI2569
V\u70b9
sI2570
V\u83d3
sI2571
V\u8ce2
sI2572
V\u5b58
sI2573
V\u77db
sI2574
V\u585a
sI2575
V\u7f85
sI2576
V\u723a
sI2577
V\u65e7
sI2578
V\u6666
sI2579
V\u6368
sI2580
V\u5feb
sI2581
V\u9d6c
sI2582
V\u53f3
sI2583
V\u90f5
sI2584
V\u6df7
sI2585
V\u67fb
sI2586
V\u7e01
sI2587
V\u5f80
sI2588
V\u5805
sI2589
V\u5984
sI2590
V\u5507
sI2591
V\u7686
sI2592
V\u708a
sI2593
V\u6d8c
sI2594
V\u6790
sI2595
V\u5642
sI2596
V\u8015
sI2597
V\u7d17
sI2598
V\u9a19
sI2599
V\u5b98
sI2600
V\u75ab
sI2601
V\u559c
sI2602
V\u511f
sI2603
V\u4e21
sI2604
V\u8ca2
sI2605
V\u66a6
sI2606
V\u63a8
sI2607
V\u60aa
sI2608
V\u7aae
sI2609
V\u5631
sI2610
V\u77b0
sI2611
V\u54b2
sI2612
V\u7948
sI2613
V\u6a39
sI2614
V\u5075
sI2615
V\u843d
sI2616
V\u7e41
sI2617
V\u8b21
sI2618
V\u8d77
sI2619
V\u96c6
sI2620
V\u53c8
sI2621
V\u30ca
sI2622
V\u67d0
sI2623
V\u304e
sI2624
V\u55dc
sI2625
V\u6b63
sI2626
V\u6ce2
sI2627
V\u5d50
sI2628
V\u5f6b
sI2629
V\u5373
sI2630
V\u54f2
sI2631
V\u3075
sI2632
V\u6d77
sI2633
V\u4ef6
sI2634
V\u6eb6
sI2635
V\u62fe
sI2636
V\u817f
sI2637
V\u9b54
st.